   1               		.file	"indirect_tx.c"
   2               		.arch atmega128
   3               	__SREG__ = 0x3f
   4               	__SP_H__ = 0x3e
   5               	__SP_L__ = 0x3d
   6               	__tmp_reg__ = 0
   7               	__zero_reg__ = 1
   8               		.global __do_copy_data
   9               		.global __do_clear_bss
  17               	.Ltext0:
  18               	.global	indirectTx_init
  20               	indirectTx_init:
  21               	.LFB3:
  22               	.LM1:
  23               	/* prologue: frame size=0 */
  24               	/* prologue end (size=0) */
  25               	.LBB2:
  26               	.LM2:
  27 0000 1092 0000 		sts (IndirectPkts+1)+1,__zero_reg__
  28 0004 1092 0000 		sts IndirectPkts+1,__zero_reg__
  29               	.LM3:
  30 0008 84E0      		ldi r24,lo8(4)
  31 000a 8093 0000 		sts IndirectPkts+3,r24
  32               	.LM4:
  33 000e 1092 0000 		sts (IndirectPkts+5)+1,__zero_reg__
  34 0012 1092 0000 		sts IndirectPkts+5,__zero_reg__
  35               	.LM5:
  36 0016 8093 0000 		sts IndirectPkts+7,r24
  37               	.LM6:
  38 001a 1092 0000 		sts (IndirectPkts+9)+1,__zero_reg__
  39 001e 1092 0000 		sts IndirectPkts+9,__zero_reg__
  40               	.LM7:
  41 0022 8093 0000 		sts IndirectPkts+11,r24
  42               	.LM8:
  43 0026 1092 0000 		sts (IndirectPkts+13)+1,__zero_reg__
  44 002a 1092 0000 		sts IndirectPkts+13,__zero_reg__
  45               	.LM9:
  46 002e 8093 0000 		sts IndirectPkts+15,r24
  47 0032 8093 0000 		sts LastPkt,r24
  48 0036 8093 0000 		sts FirstPkt,r24
  49               	.LBE2:
  50               	/* epilogue: frame size=0 */
  51 003a 0895      		ret
  52               	/* epilogue end (size=1) */
  53               	/* function indirectTx_init size 30 (29) */
  54               	.LFE3:
  56               	.global	indirectTx_addPkt
  58               	indirectTx_addPkt:
  59               	.LFB4:
  60               	.LM10:
  61               	/* prologue: frame size=0 */
  62               	/* prologue end (size=0) */
  63               	.LVL0:
  64 003c DC01      		movw r26,r24
  65               	.LM11:
  66               	/* #APP */
  67 003e F894      		cli
  68               		
  69               	/* #NOAPP */
  70               	.LBB3:
  71               	.LM12:
  72 0040 8091 0000 		lds r24,IndirectPkts+1
  73 0044 9091 0000 		lds r25,(IndirectPkts+1)+1
  74               	.LVL1:
  75 0048 892B      		or r24,r25
  76 004a 01F0      		breq .L19
  77               	.LM13:
  78 004c 8091 0000 		lds r24,IndirectPkts+5
  79 0050 9091 0000 		lds r25,(IndirectPkts+5)+1
  80 0054 892B      		or r24,r25
  81 0056 01F0      		breq .L20
  82 0058 8091 0000 		lds r24,IndirectPkts+9
  83 005c 9091 0000 		lds r25,(IndirectPkts+9)+1
  84 0060 892B      		or r24,r25
  85 0062 01F0      		breq .L21
  86 0064 8091 0000 		lds r24,IndirectPkts+13
  87 0068 9091 0000 		lds r25,(IndirectPkts+13)+1
  88 006c 892B      		or r24,r25
  89 006e 01F0      		breq .L22
  90               	.LBE3:
  91               	.LM14:
  92               	/* #APP */
  93 0070 7894      		sei
  94               		
  95               	/* #NOAPP */
  96 0072 80E0      		ldi r24,lo8(0)
  97 0074 90E0      		ldi r25,hi8(0)
  98               	.LM15:
  99 0076 0895      		ret
 100               	.L19:
 101               	.LBB4:
 102               	.LM16:
 103 0078 E0E0      		ldi r30,lo8(0)
 104 007a F0E0      		ldi r31,hi8(0)
 105 007c 90E0      		ldi r25,lo8(0)
 106               	.LVL2:
 107               	.L6:
 108               	.LM17:
 109 007e EE0F      		lsl r30
 110 0080 FF1F      		rol r31
 111 0082 EE0F      		lsl r30
 112 0084 FF1F      		rol r31
 113 0086 E050      		subi r30,lo8(-(IndirectPkts))
 114 0088 F040      		sbci r31,hi8(-(IndirectPkts))
 115 008a B283      		std Z+2,r27
 116 008c A183      		std Z+1,r26
 117               	.LM18:
 118 008e 8091 0000 		lds r24,mpib+35
 119 0092 8083      		st Z,r24
 120               	.LM19:
 121 0094 A058      		subi r26,lo8(-(128))
 122 0096 BF4F      		sbci r27,hi8(-(128))
 123 0098 9C93      		st X,r25
 124               	.LM20:
 125 009a 8091 0000 		lds r24,FirstPkt
 126 009e 8430      		cpi r24,lo8(4)
 127 00a0 01F0      		breq .L23
 128               	.LM21:
 129 00a2 E091 0000 		lds r30,LastPkt
 130 00a6 FF27      		clr r31
 131 00a8 EE0F      		lsl r30
 132 00aa FF1F      		rol r31
 133 00ac EE0F      		lsl r30
 134 00ae FF1F      		rol r31
 135 00b0 E050      		subi r30,lo8(-(IndirectPkts))
 136 00b2 F040      		sbci r31,hi8(-(IndirectPkts))
 137 00b4 9383      		std Z+3,r25
 138               	.L15:
 139               	.LM22:
 140 00b6 9093 0000 		sts LastPkt,r25
 141               	.LM23:
 142               	/* #APP */
 143 00ba 7894      		sei
 144               		
 145               	/* #NOAPP */
 146 00bc 81E0      		ldi r24,lo8(1)
 147 00be 90E0      		ldi r25,hi8(1)
 148 00c0 0895      		ret
 149               	.L23:
 150               	.LM24:
 151 00c2 9093 0000 		sts FirstPkt,r25
 152 00c6 00C0      		rjmp .L15
 153               	.LVL3:
 154               	.L20:
 155               	.LM25:
 156 00c8 E1E0      		ldi r30,lo8(1)
 157 00ca F0E0      		ldi r31,hi8(1)
 158 00cc 91E0      		ldi r25,lo8(1)
 159               	.LVL4:
 160 00ce 00C0      		rjmp .L6
 161               	.LVL5:
 162               	.L21:
 163 00d0 E2E0      		ldi r30,lo8(2)
 164 00d2 F0E0      		ldi r31,hi8(2)
 165 00d4 92E0      		ldi r25,lo8(2)
 166               	.LVL6:
 167 00d6 00C0      		rjmp .L6
 168               	.LVL7:
 169               	.L22:
 170 00d8 E3E0      		ldi r30,lo8(3)
 171 00da F0E0      		ldi r31,hi8(3)
 172 00dc 93E0      		ldi r25,lo8(3)
 173               	.LVL8:
 174 00de 00C0      		rjmp .L6
 175               	.LBE4:
 176               	/* epilogue: frame size=0 */
 177               	/* epilogue: noreturn */
 178               	/* epilogue end (size=0) */
 179               	/* function indirectTx_addPkt size 91 (91) */
 180               	.LFE4:
 182               	.global	indirectTx_getPkt
 184               	indirectTx_getPkt:
 185               	.LFB6:
 186               	.LM26:
 187               	/* prologue: frame size=0 */
 188 00e0 0F93      		push r16
 189 00e2 1F93      		push r17
 190 00e4 CF93      		push r28
 191 00e6 DF93      		push r29
 192               	/* prologue end (size=4) */
 193               	.LVL9:
 194 00e8 EC01      		movw r28,r24
 195 00ea 862F      		mov r24,r22
 196               	.LVL10:
 197               	.LM27:
 198               	/* #APP */
 199 00ec F894      		cli
 200               		
 201               	.LM28:
 202               	/* #NOAPP */
 203 00ee E091 0000 		lds r30,FirstPkt
 204               	.LVL11:
 205               	.LM29:
 206 00f2 E430      		cpi r30,lo8(4)
 207 00f4 01F0      		breq .L25
 208               	.LVL12:
 209               	.LM30:
 210 00f6 AE2F      		mov r26,r30
 211 00f8 BB27      		clr r27
 212 00fa AA0F      		lsl r26
 213 00fc BB1F      		rol r27
 214 00fe AA0F      		lsl r26
 215 0100 BB1F      		rol r27
 216 0102 FD01      		movw r30,r26
 217               	.LVL13:
 218 0104 E050      		subi r30,lo8(-(IndirectPkts))
 219 0106 F040      		sbci r31,hi8(-(IndirectPkts))
 220 0108 0180      		ldd __tmp_reg__,Z+1
 221 010a F281      		ldd r31,Z+2
 222 010c E02D      		mov r30,__tmp_reg__
 223 010e 3097      		sbiw r30,0
 224 0110 01F0      		breq .L25
 225               	.LM31:
 226 0112 0881      		ld r16,Y
 227 0114 1981      		ldd r17,Y+1
 228 0116 2A81      		ldd r18,Y+2
 229 0118 3B81      		ldd r19,Y+3
 230 011a 4C81      		ldd r20,Y+4
 231 011c 5D81      		ldd r21,Y+5
 232 011e 6E81      		ldd r22,Y+6
 233 0120 7F81      		ldd r23,Y+7
 234 0122 8230      		cpi r24,lo8(2)
 235 0124 01F0      		breq .L41
 236 0126 8330      		cpi r24,lo8(3)
 237 0128 01F4      		brne .L42
 238 012a 00C0      		rjmp .L43
 239               	.LVL14:
 240               	.L47:
 241               	.LM32:
 242 012c AE2F      		mov r26,r30
 243 012e BB27      		clr r27
 244 0130 AA0F      		lsl r26
 245 0132 BB1F      		rol r27
 246 0134 AA0F      		lsl r26
 247 0136 BB1F      		rol r27
 248 0138 FD01      		movw r30,r26
 249               	.LVL15:
 250 013a E050      		subi r30,lo8(-(IndirectPkts))
 251 013c F040      		sbci r31,hi8(-(IndirectPkts))
 252 013e 8181      		ldd r24,Z+1
 253 0140 9281      		ldd r25,Z+2
 254               	.LVL16:
 255 0142 892B      		or r24,r25
 256 0144 01F0      		breq .L25
 257               	.LVL17:
 258               	.L42:
 259               	.LM33:
 260 0146 A050      		subi r26,lo8(-(IndirectPkts))
 261 0148 B040      		sbci r27,hi8(-(IndirectPkts))
 262 014a ED01      		movw r28,r26
 263               	.LVL18:
 264 014c EB81      		ldd r30,Y+3
 265               	.LVL19:
 266               	.LM34:
 267 014e E430      		cpi r30,lo8(4)
 268 0150 01F4      		brne .L47
 269               	.LVL20:
 270               	.L25:
 271               	.LM35:
 272               	/* #APP */
 273 0152 7894      		sei
 274               		
 275               	/* #NOAPP */
 276 0154 E0E0      		ldi r30,lo8(0)
 277 0156 F0E0      		ldi r31,hi8(0)
 278               	.LVL21:
 279 0158 00C0      		rjmp .L39
 280               	.LVL22:
 281               	.L41:
 282 015a 2881      		ld r18,Y
 283 015c 3981      		ldd r19,Y+1
 284               	.L28:
 285               	.LM36:
 286 015e 8581      		ldd r24,Z+5
 287 0160 9681      		ldd r25,Z+6
 288               	.LVL23:
 289 0162 2817      		cp r18,r24
 290 0164 3907      		cpc r19,r25
 291 0166 01F4      		brne .+2
 292 0168 00C0      		rjmp .L33
 293               	.LM37:
 294 016a A050      		subi r26,lo8(-(IndirectPkts))
 295 016c B040      		sbci r27,hi8(-(IndirectPkts))
 296 016e ED01      		movw r28,r26
 297               	.LVL24:
 298 0170 EB81      		ldd r30,Y+3
 299               	.LVL25:
 300               	.LM38:
 301 0172 E430      		cpi r30,lo8(4)
 302 0174 01F0      		breq .L25
 303 0176 AE2F      		mov r26,r30
 304 0178 BB27      		clr r27
 305 017a AA0F      		lsl r26
 306 017c BB1F      		rol r27
 307 017e AA0F      		lsl r26
 308 0180 BB1F      		rol r27
 309 0182 FD01      		movw r30,r26
 310               	.LVL26:
 311 0184 E050      		subi r30,lo8(-(IndirectPkts))
 312 0186 F040      		sbci r31,hi8(-(IndirectPkts))
 313 0188 0180      		ldd __tmp_reg__,Z+1
 314 018a F281      		ldd r31,Z+2
 315 018c E02D      		mov r30,__tmp_reg__
 316 018e 3097      		sbiw r30,0
 317 0190 01F4      		brne .L28
 318 0192 00C0      		rjmp .L25
 319               	.LVL27:
 320               	.L43:
 321               	.LM39:
 322 0194 8581      		ldd r24,Z+5
 323               	.LVL28:
 324 0196 8017      		cp r24,r16
 325 0198 01F0      		breq .L48
 326               	.L35:
 327               	.LM40:
 328 019a A050      		subi r26,lo8(-(IndirectPkts))
 329 019c B040      		sbci r27,hi8(-(IndirectPkts))
 330 019e ED01      		movw r28,r26
 331               	.LVL29:
 332 01a0 EB81      		ldd r30,Y+3
 333               	.LVL30:
 334               	.LM41:
 335 01a2 E430      		cpi r30,lo8(4)
 336 01a4 01F0      		breq .L25
 337 01a6 AE2F      		mov r26,r30
 338 01a8 BB27      		clr r27
 339 01aa AA0F      		lsl r26
 340 01ac BB1F      		rol r27
 341 01ae AA0F      		lsl r26
 342 01b0 BB1F      		rol r27
 343               	.LVL31:
 344 01b2 FD01      		movw r30,r26
 345 01b4 E050      		subi r30,lo8(-(IndirectPkts))
 346 01b6 F040      		sbci r31,hi8(-(IndirectPkts))
 347 01b8 0180      		ldd __tmp_reg__,Z+1
 348 01ba F281      		ldd r31,Z+2
 349 01bc E02D      		mov r30,__tmp_reg__
 350 01be 3097      		sbiw r30,0
 351 01c0 01F4      		brne .L43
 352 01c2 00C0      		rjmp .L25
 353               	.LVL32:
 354               	.L48:
 355               	.LM42:
 356 01c4 8681      		ldd r24,Z+6
 357 01c6 8117      		cp r24,r17
 358 01c8 01F4      		brne .L35
 359 01ca 8781      		ldd r24,Z+7
 360 01cc 8217      		cp r24,r18
 361 01ce 01F4      		brne .L35
 362 01d0 8085      		ldd r24,Z+8
 363 01d2 8317      		cp r24,r19
 364 01d4 01F4      		brne .L35
 365 01d6 8185      		ldd r24,Z+9
 366 01d8 8417      		cp r24,r20
 367 01da 01F4      		brne .L35
 368 01dc 8285      		ldd r24,Z+10
 369 01de 8517      		cp r24,r21
 370 01e0 01F4      		brne .L35
 371 01e2 8385      		ldd r24,Z+11
 372 01e4 8617      		cp r24,r22
 373 01e6 01F4      		brne .L35
 374 01e8 8485      		ldd r24,Z+12
 375 01ea 8717      		cp r24,r23
 376 01ec 01F4      		brne .L35
 377               	.L33:
 378               	.LM43:
 379               	/* #APP */
 380 01ee 7894      		sei
 381               		
 382               	.LVL33:
 383               	/* #NOAPP */
 384               	.L39:
 385               	.LM44:
 386 01f0 CF01      		movw r24,r30
 387               	.LVL34:
 388               	/* epilogue: frame size=0 */
 389 01f2 DF91      		pop r29
 390 01f4 CF91      		pop r28
 391 01f6 1F91      		pop r17
 392 01f8 0F91      		pop r16
 393 01fa 0895      		ret
 394               	/* epilogue end (size=5) */
 395               	/* function indirectTx_getPkt size 151 (142) */
 396               	.LFE6:
 398               	.global	indirectTx_releasePkt
 400               	indirectTx_releasePkt:
 401               	.LFB2:
 402               	.LM45:
 403               	/* prologue: frame size=0 */
 404 01fc CF93      		push r28
 405 01fe DF93      		push r29
 406               	/* prologue end (size=2) */
 407               	.LVL35:
 408 0200 EC01      		movw r28,r24
 409               	.LM46:
 410 0202 892B      		or r24,r25
 411 0204 01F0      		breq .L54
 412               	.LM47:
 413 0206 8881      		ld r24,Y
 414               	.LVL36:
 415 0208 8770      		andi r24,lo8(7)
 416 020a 8130      		cpi r24,lo8(1)
 417 020c 01F0      		breq .L55
 418               	.L52:
 419               	.LM48:
 420 020e CE01      		movw r24,r28
 421 0210 0E94 0000 		call mem_releaseTxPkt
 422               	.LVL37:
 423 0214 00C0      		rjmp .L54
 424               	.LVL38:
 425               	.L55:
 426               	.LM49:
 427 0216 7727      		clr r23
 428 0218 CE57      		subi r28,lo8(-(130))
 429 021a DF4F      		sbci r29,hi8(-(130))
 430 021c 8881      		ld r24,Y
 431 021e C258      		subi r28,lo8(-(-130))
 432 0220 D040      		sbci r29,hi8(-(-130))
 433 0222 9927      		clr r25
 434 0224 0E94 0000 		call mcpsDataConfirm
 435               	.LVL39:
 436 0228 00C0      		rjmp .L52
 437               	.LVL40:
 438               	.L54:
 439               	/* epilogue: frame size=0 */
 440 022a DF91      		pop r29
 441 022c CF91      		pop r28
 442 022e 0895      		ret
 443               	/* epilogue end (size=3) */
 444               	/* function indirectTx_releasePkt size 26 (21) */
 445               	.LFE2:
 447               	.global	indirectTx_RespondDataReq
 449               	indirectTx_RespondDataReq:
 450               	.LFB8:
 451               	.LM50:
 452               	/* prologue: frame size=0 */
 453 0230 8F92      		push r8
 454 0232 AF92      		push r10
 455 0234 BF92      		push r11
 456 0236 CF92      		push r12
 457 0238 DF92      		push r13
 458 023a EF92      		push r14
 459 023c FF92      		push r15
 460 023e 0F93      		push r16
 461 0240 1F93      		push r17
 462 0242 CF93      		push r28
 463 0244 DF93      		push r29
 464               	/* prologue end (size=11) */
 465               	.LVL41:
 466 0246 7C01      		movw r14,r24
 467               	.LM51:
 468 0248 EC01      		movw r28,r24
 469 024a 8981      		ldd r24,Y+1
 470               	.LVL42:
 471 024c 8295      		swap r24
 472 024e 8695      		lsr r24
 473 0250 8695      		lsr r24
 474 0252 8370      		andi r24,0x3
 475 0254 4FE0      		ldi r20,lo8(15)
 476 0256 A42E      		mov r10,r20
 477 0258 B12C      		mov r11,__zero_reg__
 478               	.LVL43:
 479 025a AE0C      		add r10,r14
 480 025c BF1C      		adc r11,r15
 481               	.LBB7:
 482               	.LBB8:
 483               	.LM52:
 484               	/* #APP */
 485 025e F894      		cli
 486               		
 487               	.LM53:
 488               	/* #NOAPP */
 489 0260 E091 0000 		lds r30,FirstPkt
 490               	.LVL44:
 491               	.LM54:
 492 0264 E430      		cpi r30,lo8(4)
 493 0266 01F0      		breq .L57
 494               	.LM55:
 495 0268 AE2F      		mov r26,r30
 496 026a BB27      		clr r27
 497 026c AA0F      		lsl r26
 498 026e BB1F      		rol r27
 499 0270 AA0F      		lsl r26
 500 0272 BB1F      		rol r27
 501 0274 FD01      		movw r30,r26
 502               	.LVL45:
 503 0276 E050      		subi r30,lo8(-(IndirectPkts))
 504 0278 F040      		sbci r31,hi8(-(IndirectPkts))
 505 027a 0180      		ldd __tmp_reg__,Z+1
 506 027c F281      		ldd r31,Z+2
 507 027e E02D      		mov r30,__tmp_reg__
 508 0280 3097      		sbiw r30,0
 509 0282 01F0      		breq .L57
 510               	.LM56:
 511 0284 E501      		movw r28,r10
 512 0286 0881      		ld r16,Y
 513 0288 1981      		ldd r17,Y+1
 514 028a 2A81      		ldd r18,Y+2
 515 028c 3B81      		ldd r19,Y+3
 516 028e 4C81      		ldd r20,Y+4
 517 0290 5D81      		ldd r21,Y+5
 518 0292 6E81      		ldd r22,Y+6
 519 0294 7F81      		ldd r23,Y+7
 520 0296 8230      		cpi r24,lo8(2)
 521 0298 01F4      		brne .+2
 522 029a 00C0      		rjmp .L75
 523 029c 8330      		cpi r24,lo8(3)
 524 029e 01F4      		brne .L76
 525 02a0 00C0      		rjmp .L77
 526               	.LVL46:
 527               	.L81:
 528               	.LM57:
 529 02a2 AE2F      		mov r26,r30
 530 02a4 BB27      		clr r27
 531 02a6 AA0F      		lsl r26
 532 02a8 BB1F      		rol r27
 533 02aa AA0F      		lsl r26
 534 02ac BB1F      		rol r27
 535 02ae FD01      		movw r30,r26
 536               	.LVL47:
 537 02b0 E050      		subi r30,lo8(-(IndirectPkts))
 538 02b2 F040      		sbci r31,hi8(-(IndirectPkts))
 539 02b4 8181      		ldd r24,Z+1
 540 02b6 9281      		ldd r25,Z+2
 541 02b8 892B      		or r24,r25
 542 02ba 01F0      		breq .L57
 543               	.L76:
 544               	.LM58:
 545 02bc A050      		subi r26,lo8(-(IndirectPkts))
 546 02be B040      		sbci r27,hi8(-(IndirectPkts))
 547 02c0 ED01      		movw r28,r26
 548 02c2 EB81      		ldd r30,Y+3
 549               	.LVL48:
 550               	.LM59:
 551 02c4 E430      		cpi r30,lo8(4)
 552 02c6 01F4      		brne .L81
 553               	.LVL49:
 554               	.L57:
 555               	.LM60:
 556               	/* #APP */
 557 02c8 7894      		sei
 558               		
 559               	/* #NOAPP */
 560               	.LBE8:
 561               	.LBE7:
 562               	.LM61:
 563 02ca 0E94 0000 		call mem_getFreeTxPkt
 564               	.LVL50:
 565 02ce EC01      		movw r28,r24
 566               	.LM62:
 567 02d0 0097      		sbiw r24,0
 568 02d2 01F4      		brne .+2
 569 02d4 00C0      		rjmp .L74
 570               	.LM63:
 571 02d6 62E0      		ldi r22,lo8(2)
 572 02d8 70E0      		ldi r23,hi8(2)
 573 02da 0E94 0000 		call mem_set
 574               	.LM64:
 575 02de CD57      		subi r28,lo8(-(131))
 576 02e0 DF4F      		sbci r29,hi8(-(131))
 577 02e2 85E0      		ldi r24,lo8(5)
 578 02e4 8883      		st Y,r24
 579               	.LM65:
 580 02e6 2396      		adiw r28,3
 581 02e8 81E0      		ldi r24,lo8(1)
 582 02ea 8883      		st Y,r24
 583 02ec C658      		subi r28,lo8(-(-134))
 584 02ee D040      		sbci r29,hi8(-(-134))
 585               	.LM66:
 586 02f0 F701      		movw r30,r14
 587 02f2 C584      		ldd r12,Z+13
 588 02f4 D684      		ldd r13,Z+14
 589 02f6 E180      		ldd r14,Z+1
 590               	.LVL51:
 591 02f8 E694      		lsr r14
 592 02fa E694      		lsr r14
 593 02fc E694      		lsr r14
 594 02fe E694      		lsr r14
 595 0300 E694      		lsr r14
 596 0302 E694      		lsr r14
 597 0304 2091 0000 		lds r18,mpib+28
 598 0308 3091 0000 		lds r19,(mpib+28)+1
 599 030c 1F92      		push __zero_reg__
 600 030e 1F92      		push __zero_reg__
 601 0310 1F92      		push __zero_reg__
 602 0312 01E0      		ldi r16,lo8(1)
 603 0314 802E      		mov r8,r16
 604 0316 00E0      		ldi r16,lo8(mpib+32)
 605 0318 10E0      		ldi r17,hi8(mpib+32)
 606 031a 42E0      		ldi r20,lo8(2)
 607 031c 61E0      		ldi r22,lo8(1)
 608 031e CE01      		movw r24,r28
 609               	.LVL52:
 610 0320 0E94 0000 		call mac_formatMpdu
 611               	.LVL53:
 612               	.LM67:
 613 0324 CE01      		movw r24,r28
 614               	.LVL54:
 615 0326 0E94 0000 		call tx_trans
 616               	.LVL55:
 617 032a 0F90      		pop __tmp_reg__
 618 032c 0F90      		pop __tmp_reg__
 619 032e 0F90      	 	pop __tmp_reg__
 620 0330 892B      		or r24,r25
 621 0332 01F0      		breq .+2
 622 0334 00C0      		rjmp .L74
 623               	.LM68:
 624 0336 CE01      		movw r24,r28
 625               	.LVL56:
 626 0338 0E94 0000 		call mem_releaseTxPkt
 627               	.LVL57:
 628 033c 00C0      		rjmp .L74
 629               	.LVL58:
 630               	.L77:
 631               	.LBB9:
 632               	.LBB10:
 633               	.LM69:
 634 033e 8581      		ldd r24,Z+5
 635 0340 8017      		cp r24,r16
 636 0342 01F0      		breq .L82
 637               	.L67:
 638               	.LM70:
 639 0344 A050      		subi r26,lo8(-(IndirectPkts))
 640 0346 B040      		sbci r27,hi8(-(IndirectPkts))
 641 0348 ED01      		movw r28,r26
 642 034a EB81      		ldd r30,Y+3
 643               	.LVL59:
 644               	.LM71:
 645 034c E430      		cpi r30,lo8(4)
 646 034e 01F4      		brne .+2
 647 0350 00C0      		rjmp .L57
 648 0352 AE2F      		mov r26,r30
 649 0354 BB27      		clr r27
 650 0356 AA0F      		lsl r26
 651 0358 BB1F      		rol r27
 652 035a AA0F      		lsl r26
 653 035c BB1F      		rol r27
 654 035e FD01      		movw r30,r26
 655               	.LVL60:
 656 0360 E050      		subi r30,lo8(-(IndirectPkts))
 657 0362 F040      		sbci r31,hi8(-(IndirectPkts))
 658 0364 0180      		ldd __tmp_reg__,Z+1
 659 0366 F281      		ldd r31,Z+2
 660 0368 E02D      		mov r30,__tmp_reg__
 661 036a 3097      		sbiw r30,0
 662 036c 01F4      		brne .L77
 663 036e 00C0      		rjmp .L57
 664               	.L75:
 665 0370 E501      		movw r28,r10
 666 0372 2881      		ld r18,Y
 667 0374 3981      		ldd r19,Y+1
 668               	.L60:
 669               	.LM72:
 670 0376 8581      		ldd r24,Z+5
 671 0378 9681      		ldd r25,Z+6
 672 037a 2817      		cp r18,r24
 673 037c 3907      		cpc r19,r25
 674 037e 01F0      		breq .L65
 675               	.LM73:
 676 0380 A050      		subi r26,lo8(-(IndirectPkts))
 677 0382 B040      		sbci r27,hi8(-(IndirectPkts))
 678 0384 ED01      		movw r28,r26
 679 0386 EB81      		ldd r30,Y+3
 680               	.LVL61:
 681               	.LM74:
 682 0388 E430      		cpi r30,lo8(4)
 683 038a 01F4      		brne .+2
 684 038c 00C0      		rjmp .L57
 685 038e AE2F      		mov r26,r30
 686 0390 BB27      		clr r27
 687 0392 AA0F      		lsl r26
 688 0394 BB1F      		rol r27
 689 0396 AA0F      		lsl r26
 690 0398 BB1F      		rol r27
 691 039a FD01      		movw r30,r26
 692               	.LVL62:
 693 039c E050      		subi r30,lo8(-(IndirectPkts))
 694 039e F040      		sbci r31,hi8(-(IndirectPkts))
 695 03a0 0180      		ldd __tmp_reg__,Z+1
 696 03a2 F281      		ldd r31,Z+2
 697 03a4 E02D      		mov r30,__tmp_reg__
 698 03a6 3097      		sbiw r30,0
 699 03a8 01F4      		brne .L60
 700 03aa 00C0      		rjmp .L57
 701               	.L82:
 702               	.LM75:
 703 03ac 8681      		ldd r24,Z+6
 704 03ae 8117      		cp r24,r17
 705 03b0 01F4      		brne .L67
 706 03b2 8781      		ldd r24,Z+7
 707 03b4 8217      		cp r24,r18
 708 03b6 01F4      		brne .L67
 709 03b8 8085      		ldd r24,Z+8
 710 03ba 8317      		cp r24,r19
 711 03bc 01F4      		brne .L67
 712 03be 8185      		ldd r24,Z+9
 713 03c0 8417      		cp r24,r20
 714 03c2 01F0      		breq .+2
 715 03c4 00C0      		rjmp .L67
 716 03c6 8285      		ldd r24,Z+10
 717 03c8 8517      		cp r24,r21
 718 03ca 01F0      		breq .+2
 719 03cc 00C0      		rjmp .L67
 720 03ce 8385      		ldd r24,Z+11
 721 03d0 8617      		cp r24,r22
 722 03d2 01F0      		breq .+2
 723 03d4 00C0      		rjmp .L67
 724 03d6 8485      		ldd r24,Z+12
 725 03d8 8717      		cp r24,r23
 726 03da 01F0      		breq .+2
 727 03dc 00C0      		rjmp .L67
 728               	.L65:
 729               	.LM76:
 730               	/* #APP */
 731 03de 7894      		sei
 732               		
 733               	/* #NOAPP */
 734               	.LBE10:
 735               	.LBE9:
 736               	.LM77:
 737 03e0 CF01      		movw r24,r30
 738 03e2 0E94 0000 		call tx_trans
 739               	.L74:
 740               	/* epilogue: frame size=0 */
 741 03e6 DF91      		pop r29
 742 03e8 CF91      		pop r28
 743 03ea 1F91      		pop r17
 744 03ec 0F91      		pop r16
 745 03ee FF90      		pop r15
 746 03f0 EF90      		pop r14
 747 03f2 DF90      		pop r13
 748 03f4 CF90      		pop r12
 749 03f6 BF90      		pop r11
 750 03f8 AF90      		pop r10
 751 03fa 8F90      		pop r8
 752 03fc 0895      		ret
 753               	/* epilogue end (size=12) */
 754               	/* function indirectTx_RespondDataReq size 240 (217) */
 755               	.LFE8:
 757               	.global	indirectTx_removePkt
 759               	indirectTx_removePkt:
 760               	.LFB7:
 761               	.LM78:
 762               	/* prologue: frame size=0 */
 763 03fe EF92      		push r14
 764 0400 FF92      		push r15
 765 0402 0F93      		push r16
 766 0404 1F93      		push r17
 767 0406 CF93      		push r28
 768 0408 DF93      		push r29
 769               	/* prologue end (size=6) */
 770               	.LVL63:
 771 040a EC01      		movw r28,r24
 772               	.LM79:
 773               	/* #APP */
 774 040c F894      		cli
 775               		
 776               	.LM80:
 777               	/* #NOAPP */
 778 040e 1091 0000 		lds r17,FirstPkt
 779               	.LVL64:
 780               	.LM81:
 781 0412 C058      		subi r28,lo8(-(128))
 782 0414 DF4F      		sbci r29,hi8(-(128))
 783 0416 0881      		ld r16,Y
 784               	.LVL65:
 785 0418 C058      		subi r28,lo8(-(-128))
 786 041a D040      		sbci r29,hi8(-(-128))
 787               	.LM82:
 788 041c 1017      		cp r17,r16
 789 041e 01F4      		brne .L114
 790               	.LVL66:
 791 0420 00C0      		rjmp .L120
 792               	.LVL67:
 793               	.L117:
 794               	.LVL68:
 795               	.LM83:
 796 0422 182F      		mov r17,r24
 797               	.LVL69:
 798               	.L114:
 799               	.LM84:
 800 0424 1430      		cpi r17,lo8(4)
 801 0426 01F4      		brne .+2
 802 0428 00C0      		rjmp .L116
 803 042a A12F      		mov r26,r17
 804 042c BB27      		clr r27
 805 042e AA0F      		lsl r26
 806 0430 BB1F      		rol r27
 807 0432 AA0F      		lsl r26
 808 0434 BB1F      		rol r27
 809 0436 FD01      		movw r30,r26
 810 0438 E050      		subi r30,lo8(-(IndirectPkts))
 811 043a F040      		sbci r31,hi8(-(IndirectPkts))
 812 043c 8181      		ldd r24,Z+1
 813 043e 9281      		ldd r25,Z+2
 814               	.LVL70:
 815 0440 892B      		or r24,r25
 816 0442 01F4      		brne .+2
 817 0444 00C0      		rjmp .L98
 818               	.LM85:
 819 0446 8381      		ldd r24,Z+3
 820               	.LVL71:
 821 0448 0817      		cp r16,r24
 822 044a 01F4      		brne .L117
 823               	.L93:
 824               	.LM86:
 825 044c 1430      		cpi r17,lo8(4)
 826 044e 01F4      		brne .+2
 827 0450 00C0      		rjmp .L90
 828               	.LM87:
 829 0452 E02E      		mov r14,r16
 830 0454 FF24      		clr r15
 831 0456 A050      		subi r26,lo8(-(IndirectPkts))
 832 0458 B040      		sbci r27,hi8(-(IndirectPkts))
 833 045a EE0C      		lsl r14
 834 045c FF1C      		rol r15
 835 045e EE0C      		lsl r14
 836 0460 FF1C      		rol r15
 837 0462 F701      		movw r30,r14
 838 0464 E050      		subi r30,lo8(-(IndirectPkts))
 839 0466 F040      		sbci r31,hi8(-(IndirectPkts))
 840 0468 8381      		ldd r24,Z+3
 841               	.LVL72:
 842 046a FD01      		movw r30,r26
 843 046c 8383      		std Z+3,r24
 844               	.LBB15:
 845               	.LBB16:
 846               	.LM88:
 847 046e 2097      		sbiw r28,0
 848 0470 01F0      		breq .L104
 849               	.LM89:
 850 0472 8881      		ld r24,Y
 851 0474 8770      		andi r24,lo8(7)
 852 0476 8130      		cpi r24,lo8(1)
 853 0478 01F0      		breq .L118
 854               	.L106:
 855               	.LM90:
 856 047a CE01      		movw r24,r28
 857 047c 0E94 0000 		call mem_releaseTxPkt
 858               	.L104:
 859               	.LBE16:
 860               	.LBE15:
 861               	.LM91:
 862 0480 F701      		movw r30,r14
 863 0482 E050      		subi r30,lo8(-(IndirectPkts))
 864 0484 F040      		sbci r31,hi8(-(IndirectPkts))
 865 0486 1282      		std Z+2,__zero_reg__
 866 0488 1182      		std Z+1,__zero_reg__
 867               	.LM92:
 868 048a 84E0      		ldi r24,lo8(4)
 869 048c 8383      		std Z+3,r24
 870               	.LM93:
 871 048e 8091 0000 		lds r24,LastPkt
 872 0492 0817      		cp r16,r24
 873 0494 01F0      		breq .+2
 874 0496 00C0      		rjmp .L90
 875               	.LM94:
 876 0498 1093 0000 		sts LastPkt,r17
 877 049c 00C0      		rjmp .L90
 878               	.LVL73:
 879               	.L120:
 880               	.LM95:
 881 049e E12E      		mov r14,r17
 882 04a0 FF24      		clr r15
 883 04a2 EE0C      		lsl r14
 884 04a4 FF1C      		rol r15
 885 04a6 EE0C      		lsl r14
 886 04a8 FF1C      		rol r15
 887 04aa F701      		movw r30,r14
 888 04ac E050      		subi r30,lo8(-(IndirectPkts))
 889 04ae F040      		sbci r31,hi8(-(IndirectPkts))
 890 04b0 8381      		ldd r24,Z+3
 891 04b2 8093 0000 		sts FirstPkt,r24
 892               	.LBB17:
 893               	.LBB18:
 894               	.LM96:
 895 04b6 2097      		sbiw r28,0
 896 04b8 01F0      		breq .L86
 897               	.LM97:
 898 04ba 8881      		ld r24,Y
 899 04bc 8770      		andi r24,lo8(7)
 900 04be 8130      		cpi r24,lo8(1)
 901 04c0 01F0      		breq .L119
 902               	.L88:
 903               	.LM98:
 904 04c2 CE01      		movw r24,r28
 905 04c4 0E94 0000 		call mem_releaseTxPkt
 906               	.L86:
 907               	.LBE18:
 908               	.LBE17:
 909               	.LM99:
 910 04c8 F701      		movw r30,r14
 911 04ca E050      		subi r30,lo8(-(IndirectPkts))
 912 04cc F040      		sbci r31,hi8(-(IndirectPkts))
 913 04ce 1282      		std Z+2,__zero_reg__
 914 04d0 1182      		std Z+1,__zero_reg__
 915               	.LM100:
 916 04d2 94E0      		ldi r25,lo8(4)
 917 04d4 9383      		std Z+3,r25
 918               	.LM101:
 919 04d6 8091 0000 		lds r24,LastPkt
 920 04da 1817      		cp r17,r24
 921 04dc 01F4      		brne .L90
 922               	.LM102:
 923 04de 9093 0000 		sts LastPkt,r25
 924 04e2 00C0      		rjmp .L90
 925               	.LVL74:
 926               	.L116:
 927 04e4 A0E1      		ldi r26,lo8(16)
 928 04e6 B0E0      		ldi r27,hi8(16)
 929               	.L98:
 930               	.LM103:
 931 04e8 FD01      		movw r30,r26
 932 04ea E050      		subi r30,lo8(-(IndirectPkts))
 933 04ec F040      		sbci r31,hi8(-(IndirectPkts))
 934 04ee 8381      		ldd r24,Z+3
 935               	.LVL75:
 936 04f0 0817      		cp r16,r24
 937 04f2 01F4      		brne .L90
 938 04f4 00C0      		rjmp .L93
 939               	.L118:
 940               	.LBB19:
 941               	.LBB20:
 942               	.LM104:
 943 04f6 CE57      		subi r28,lo8(-(130))
 944 04f8 DF4F      		sbci r29,hi8(-(130))
 945 04fa 8881      		ld r24,Y
 946 04fc C258      		subi r28,lo8(-(-130))
 947 04fe D040      		sbci r29,hi8(-(-130))
 948 0500 60E0      		ldi r22,lo8(0)
 949 0502 70E0      		ldi r23,hi8(0)
 950 0504 9927      		clr r25
 951 0506 0E94 0000 		call mcpsDataConfirm
 952 050a 00C0      		rjmp .L106
 953               	.L119:
 954               	.LBE20:
 955               	.LBE19:
 956               	.LBB21:
 957               	.LBB22:
 958 050c CE57      		subi r28,lo8(-(130))
 959 050e DF4F      		sbci r29,hi8(-(130))
 960 0510 8881      		ld r24,Y
 961 0512 C258      		subi r28,lo8(-(-130))
 962 0514 D040      		sbci r29,hi8(-(-130))
 963 0516 60E0      		ldi r22,lo8(0)
 964 0518 70E0      		ldi r23,hi8(0)
 965 051a 9927      		clr r25
 966 051c 0E94 0000 		call mcpsDataConfirm
 967 0520 00C0      		rjmp .L88
 968               	.LVL76:
 969               	.L90:
 970               	.LBE22:
 971               	.LBE21:
 972               	.LM105:
 973               	/* #APP */
 974 0522 7894      		sei
 975               		
 976               	/* #NOAPP */
 977               	/* epilogue: frame size=0 */
 978 0524 DF91      		pop r29
 979 0526 CF91      		pop r28
 980 0528 1F91      		pop r17
 981 052a 0F91      		pop r16
 982 052c FF90      		pop r15
 983 052e EF90      		pop r14
 984 0530 0895      		ret
 985               	/* epilogue end (size=7) */
 986               	/* function indirectTx_removePkt size 160 (147) */
 987               	.LFE7:
 989               	.global	indirectTx_controlIndirectPkt
 991               	indirectTx_controlIndirectPkt:
 992               	.LFB5:
 993               	.LM106:
 994               	/* prologue: frame size=0 */
 995 0532 AF92      		push r10
 996 0534 BF92      		push r11
 997 0536 DF92      		push r13
 998 0538 EF92      		push r14
 999 053a FF92      		push r15
 1000 053c 0F93      		push r16
 1001 053e 1F93      		push r17
 1002 0540 CF93      		push r28
 1003 0542 DF93      		push r29
 1004               	/* prologue end (size=9) */
 1005               	.LVL77:
 1006 0544 5C01      		movw r10,r24
 1007               	.LM107:
 1008               	/* #APP */
 1009 0546 F894      		cli
 1010               		
 1011               	.LM108:
 1012               	/* #NOAPP */
 1013 0548 F090 0000 		lds r15,FirstPkt
 1014               	.LVL78:
 1015 054c 2F2D      		mov r18,r15
 1016               	.LM109:
 1017 054e 84E0      		ldi r24,lo8(4)
 1018               	.LVL79:
 1019 0550 F816      		cp r15,r24
 1020 0552 01F4      		brne .+2
 1021 0554 00C0      		rjmp .L122
 1022               	.LM110:
 1023 0556 0F2D      		mov r16,r15
 1024 0558 1127      		clr r17
 1025 055a 000F      		lsl r16
 1026 055c 111F      		rol r17
 1027 055e 000F      		lsl r16
 1028 0560 111F      		rol r17
 1029 0562 F801      		movw r30,r16
 1030 0564 E050      		subi r30,lo8(-(IndirectPkts))
 1031 0566 F040      		sbci r31,hi8(-(IndirectPkts))
 1032 0568 8181      		ldd r24,Z+1
 1033 056a 9281      		ldd r25,Z+2
 1034 056c 892B      		or r24,r25
 1035 056e 01F4      		brne .+2
 1036 0570 00C0      		rjmp .L122
 1037 0572 DD24      		clr r13
 1038               	.LVL80:
 1039 0574 00C0      		rjmp .L125
 1040               	.LVL81:
 1041               	.L126:
 1042               	.LM111:
 1043 0576 C181      		ldd r28,Z+1
 1044 0578 D281      		ldd r29,Z+2
 1045 057a 8981      		ldd r24,Y+1
 1046 057c 8C70      		andi r24,lo8(12)
 1047 057e 8C30      		cpi r24,lo8(12)
 1048 0580 01F4      		brne .+2
 1049 0582 00C0      		rjmp .L149
 1050               	.LVL82:
 1051               	.L135:
 1052               	.LM112:
 1053 0584 0050      		subi r16,lo8(-(IndirectPkts))
 1054 0586 1040      		sbci r17,hi8(-(IndirectPkts))
 1055 0588 E801      		movw r28,r16
 1056 058a FB80      		ldd r15,Y+3
 1057               	.LM113:
 1058 058c F216      		cp r15,r18
 1059 058e 01F4      		brne .+2
 1060 0590 00C0      		rjmp .L138
 1061               	.LVL83:
 1062               	.L152:
 1063 0592 EF2C      		mov r14,r15
 1064               	.LM114:
 1065 0594 E4E0      		ldi r30,lo8(4)
 1066               	.LVL84:
 1067 0596 FE16      		cp r15,r30
 1068 0598 01F4      		brne .+2
 1069 059a 00C0      		rjmp .L146
 1070               	.L153:
 1071 059c 0F2D      		mov r16,r15
 1072 059e 1127      		clr r17
 1073 05a0 000F      		lsl r16
 1074 05a2 111F      		rol r17
 1075 05a4 000F      		lsl r16
 1076 05a6 111F      		rol r17
 1077 05a8 F801      		movw r30,r16
 1078 05aa E050      		subi r30,lo8(-(IndirectPkts))
 1079 05ac F040      		sbci r31,hi8(-(IndirectPkts))
 1080 05ae 8181      		ldd r24,Z+1
 1081 05b0 9281      		ldd r25,Z+2
 1082 05b2 892B      		or r24,r25
 1083 05b4 01F0      		breq .L146
 1084               	.L125:
 1085               	.LM115:
 1086 05b6 F801      		movw r30,r16
 1087 05b8 E050      		subi r30,lo8(-(IndirectPkts))
 1088 05ba F040      		sbci r31,hi8(-(IndirectPkts))
 1089 05bc 8081      		ld r24,Z
 1090 05be 8150      		subi r24,lo8(-(-1))
 1091 05c0 8083      		st Z,r24
 1092 05c2 8F3F      		cpi r24,lo8(-1)
 1093 05c4 01F4      		brne .L126
 1094               	.LM116:
 1095 05c6 C181      		ldd r28,Z+1
 1096 05c8 D281      		ldd r29,Z+2
 1097               	.LBB25:
 1098               	.LBB26:
 1099               	.LM117:
 1100 05ca 2097      		sbiw r28,0
 1101 05cc 01F0      		breq .L128
 1102               	.LM118:
 1103 05ce 8881      		ld r24,Y
 1104 05d0 8770      		andi r24,lo8(7)
 1105 05d2 8130      		cpi r24,lo8(1)
 1106 05d4 01F4      		brne .+2
 1107 05d6 00C0      		rjmp .L150
 1108               	.L130:
 1109               	.LM119:
 1110 05d8 CE01      		movw r24,r28
 1111 05da 0E94 0000 		call mem_releaseTxPkt
 1112 05de 2091 0000 		lds r18,FirstPkt
 1113               	.L128:
 1114               	.LBE26:
 1115               	.LBE25:
 1116               	.LM120:
 1117 05e2 D801      		movw r26,r16
 1118 05e4 A050      		subi r26,lo8(-(IndirectPkts))
 1119 05e6 B040      		sbci r27,hi8(-(IndirectPkts))
 1120 05e8 ED01      		movw r28,r26
 1121 05ea 1A82      		std Y+2,__zero_reg__
 1122 05ec 1982      		std Y+1,__zero_reg__
 1123               	.LM121:
 1124 05ee 2F15      		cp r18,r15
 1125 05f0 01F4      		brne .+2
 1126 05f2 00C0      		rjmp .L151
 1127               	.LM122:
 1128 05f4 EE2D      		mov r30,r14
 1129 05f6 FF27      		clr r31
 1130 05f8 EE0F      		lsl r30
 1131 05fa FF1F      		rol r31
 1132 05fc EE0F      		lsl r30
 1133 05fe FF1F      		rol r31
 1134 0600 E050      		subi r30,lo8(-(IndirectPkts))
 1135 0602 F040      		sbci r31,hi8(-(IndirectPkts))
 1136 0604 ED01      		movw r28,r26
 1137 0606 8B81      		ldd r24,Y+3
 1138 0608 8383      		std Z+3,r24
 1139               	.L134:
 1140               	.LM123:
 1141 060a 8091 0000 		lds r24,LastPkt
 1142 060e 8F15      		cp r24,r15
 1143 0610 01F0      		breq .+2
 1144 0612 00C0      		rjmp .L135
 1145               	.LVL85:
 1146               	.LM124:
 1147 0614 E092 0000 		sts LastPkt,r14
 1148               	.LM125:
 1149 0618 0050      		subi r16,lo8(-(IndirectPkts))
 1150 061a 1040      		sbci r17,hi8(-(IndirectPkts))
 1151 061c E801      		movw r28,r16
 1152 061e FB80      		ldd r15,Y+3
 1153               	.LM126:
 1154 0620 F216      		cp r15,r18
 1155 0622 01F0      		breq .+2
 1156 0624 00C0      		rjmp .L152
 1157               	.L138:
 1158 0626 F4E0      		ldi r31,lo8(4)
 1159 0628 EF2E      		mov r14,r31
 1160               	.LM127:
 1161 062a E4E0      		ldi r30,lo8(4)
 1162               	.LVL86:
 1163 062c FE16      		cp r15,r30
 1164 062e 01F0      		breq .+2
 1165 0630 00C0      		rjmp .L153
 1166               	.L146:
 1167 0632 9D2D      		mov r25,r13
 1168 0634 9770      		andi r25,lo8(7)
 1169 0636 DD0C      		lsl r13
 1170 0638 DD0C      		lsl r13
 1171 063a DD0C      		lsl r13
 1172 063c D394      		inc r13
 1173 063e ED2D      		mov r30,r13
 1174 0640 FF27      		clr r31
 1175 0642 00C0      		rjmp .L143
 1176               	.L149:
 1177               	.LM128:
 1178 0644 ED2D      		mov r30,r13
 1179 0646 FF27      		clr r31
 1180 0648 EE0F      		lsl r30
 1181 064a FF1F      		rol r31
 1182 064c EE0F      		lsl r30
 1183 064e FF1F      		rol r31
 1184 0650 EE0F      		lsl r30
 1185 0652 FF1F      		rol r31
 1186 0654 EA0D      		add r30,r10
 1187 0656 FB1D      		adc r31,r11
 1188 0658 DF01      		movw r26,r30
 1189 065a 1196      		adiw r26,1
 1190 065c 8D81      		ldd r24,Y+5
 1191 065e 8183      		std Z+1,r24
 1192 0660 8E81      		ldd r24,Y+6
 1193 0662 FD01      		movw r30,r26
 1194 0664 8183      		std Z+1,r24
 1195 0666 8F81      		ldd r24,Y+7
 1196 0668 8283      		std Z+2,r24
 1197 066a 8885      		ldd r24,Y+8
 1198 066c 8383      		std Z+3,r24
 1199 066e 8985      		ldd r24,Y+9
 1200 0670 8483      		std Z+4,r24
 1201 0672 8A85      		ldd r24,Y+10
 1202 0674 8583      		std Z+5,r24
 1203 0676 8B85      		ldd r24,Y+11
 1204 0678 8683      		std Z+6,r24
 1205 067a 8C85      		ldd r24,Y+12
 1206 067c 8783      		std Z+7,r24
 1207               	.LM129:
 1208 067e D394      		inc r13
 1209 0680 2091 0000 		lds r18,FirstPkt
 1210 0684 00C0      		rjmp .L135
 1211               	.L151:
 1212               	.LM130:
 1213 0686 2B81      		ldd r18,Y+3
 1214 0688 2093 0000 		sts FirstPkt,r18
 1215 068c 00C0      		rjmp .L134
 1216               	.L150:
 1217               	.LBB27:
 1218               	.LBB28:
 1219               	.LM131:
 1220 068e CE57      		subi r28,lo8(-(130))
 1221 0690 DF4F      		sbci r29,hi8(-(130))
 1222 0692 8881      		ld r24,Y
 1223 0694 C258      		subi r28,lo8(-(-130))
 1224 0696 D040      		sbci r29,hi8(-(-130))
 1225 0698 60EF      		ldi r22,lo8(240)
 1226 069a 70E0      		ldi r23,hi8(240)
 1227 069c 9927      		clr r25
 1228 069e 0E94 0000 		call mcpsDataConfirm
 1229 06a2 00C0      		rjmp .L130
 1230               	.LVL87:
 1231               	.L122:
 1232               	.LBE28:
 1233               	.LBE27:
 1234               	.LM132:
 1235 06a4 90E0      		ldi r25,lo8(0)
 1236 06a6 E1E0      		ldi r30,lo8(1)
 1237 06a8 F0E0      		ldi r31,hi8(1)
 1238               	.LVL88:
 1239               	.L143:
 1240               	.LM133:
 1241 06aa 9295      		swap r25
 1242 06ac 907F      		andi r25,0xf0
 1243 06ae D501      		movw r26,r10
 1244 06b0 8C91      		ld r24,X
 1245 06b2 8878      		andi r24,lo8(-120)
 1246               	.LM134:
 1247 06b4 892B      		or r24,r25
 1248 06b6 8C93      		st X,r24
 1249               	.LM135:
 1250               	/* #APP */
 1251 06b8 7894      		sei
 1252               		
 1253               	.LM136:
 1254               	/* #NOAPP */
 1255 06ba CF01      		movw r24,r30
 1256               	/* epilogue: frame size=0 */
 1257 06bc DF91      		pop r29
 1258 06be CF91      		pop r28
 1259 06c0 1F91      		pop r17
 1260 06c2 0F91      		pop r16
 1261 06c4 FF90      		pop r15
 1262 06c6 EF90      		pop r14
 1263 06c8 DF90      		pop r13
 1264 06ca BF90      		pop r11
 1265 06cc AF90      		pop r10
 1266 06ce 0895      		ret
 1267               	/* epilogue end (size=10) */
 1268               	/* function indirectTx_controlIndirectPkt size 213 (194) */
 1269               	.LFE5:
 1271               		.comm FirstPkt,1,1
 1272               		.comm IndirectPkts,16,1
 1273               		.comm LastPkt,1,1
 1338               	.Letext0:
DEFINED SYMBOLS
                            *ABS*:00000000 indirect_tx.c
C:\DOCUME~1\pnthai\LOCALS~1\Temp/ccU9aaaa.s:3      *ABS*:0000003f __SREG__
C:\DOCUME~1\pnthai\LOCALS~1\Temp/ccU9aaaa.s:4      *ABS*:0000003e __SP_H__
C:\DOCUME~1\pnthai\LOCALS~1\Temp/ccU9aaaa.s:5      *ABS*:0000003d __SP_L__
C:\DOCUME~1\pnthai\LOCALS~1\Temp/ccU9aaaa.s:6      *ABS*:00000000 __tmp_reg__
C:\DOCUME~1\pnthai\LOCALS~1\Temp/ccU9aaaa.s:7      *ABS*:00000001 __zero_reg__
C:\DOCUME~1\pnthai\LOCALS~1\Temp/ccU9aaaa.s:20     .text:00000000 indirectTx_init
                            *COM*:00000010 IndirectPkts
                            *COM*:00000001 LastPkt
                            *COM*:00000001 FirstPkt
C:\DOCUME~1\pnthai\LOCALS~1\Temp/ccU9aaaa.s:58     .text:0000003c indirectTx_addPkt
C:\DOCUME~1\pnthai\LOCALS~1\Temp/ccU9aaaa.s:184    .text:000000e0 indirectTx_getPkt
C:\DOCUME~1\pnthai\LOCALS~1\Temp/ccU9aaaa.s:400    .text:000001fc indirectTx_releasePkt
C:\DOCUME~1\pnthai\LOCALS~1\Temp/ccU9aaaa.s:449    .text:00000230 indirectTx_RespondDataReq
C:\DOCUME~1\pnthai\LOCALS~1\Temp/ccU9aaaa.s:759    .text:000003fe indirectTx_removePkt
C:\DOCUME~1\pnthai\LOCALS~1\Temp/ccU9aaaa.s:991    .text:00000532 indirectTx_controlIndirectPkt

UNDEFINED SYMBOLS
__do_copy_data
__do_clear_bss
mpib
mem_releaseTxPkt
mcpsDataConfirm
mem_getFreeTxPkt
mem_set
mac_formatMpdu
tx_trans
