   1               		.file	"static_timer.c"
   2               		.arch atmega128
   3               	__SREG__ = 0x3f
   4               	__SP_H__ = 0x3e
   5               	__SP_L__ = 0x3d
   6               	__tmp_reg__ = 0
   7               	__zero_reg__ = 1
   8               		.global __do_copy_data
   9               		.global __do_clear_bss
  17               	.Ltext0:
  18               	.global	mtimer_endTmr
  20               	mtimer_endTmr:
  21               	.LFB9:
  22               	.LM1:
  23               	/* prologue: frame size=0 */
  24 0000 CF93      		push r28
  25 0002 DF93      		push r29
  26               	/* prologue end (size=2) */
  27               	.LVL0:
  28 0004 EC01      		movw r28,r24
  29               	.LM2:
  30               	/* #APP */
  31 0006 F894      		cli
  32               		
  33               	.LM3:
  34               	/* #NOAPP */
  35 0008 E091 0000 		lds r30,MsgTimer
  36 000c F091 0000 		lds r31,(MsgTimer)+1
  37 0010 3097      		sbiw r30,0
  38 0012 01F0      		breq .L2
  39               	.LVL1:
  40               	.LM4:
  41 0014 2081      		ld r18,Z
  42 0016 3181      		ldd r19,Z+1
  43 0018 4281      		ldd r20,Z+2
  44 001a 5381      		ldd r21,Z+3
  45 001c 8881      		ld r24,Y
  46 001e 9981      		ldd r25,Y+1
  47 0020 AA81      		ldd r26,Y+2
  48 0022 BB81      		ldd r27,Y+3
  49 0024 2817      		cp r18,r24
  50 0026 3907      		cpc r19,r25
  51 0028 4A07      		cpc r20,r26
  52 002a 5B07      		cpc r21,r27
  53 002c 01F4      		brne .+2
  54 002e 00C0      		rjmp .L29
  55               	.LVL2:
  56               	.L2:
  57 0030 E091 0000 		lds r30,MsgTimer+2
  58 0034 F091 0000 		lds r31,(MsgTimer+2)+1
  59 0038 3097      		sbiw r30,0
  60 003a 01F0      		breq .L6
  61 003c 2081      		ld r18,Z
  62 003e 3181      		ldd r19,Z+1
  63 0040 4281      		ldd r20,Z+2
  64 0042 5381      		ldd r21,Z+3
  65 0044 8881      		ld r24,Y
  66 0046 9981      		ldd r25,Y+1
  67 0048 AA81      		ldd r26,Y+2
  68 004a BB81      		ldd r27,Y+3
  69 004c 2817      		cp r18,r24
  70 004e 3907      		cpc r19,r25
  71 0050 4A07      		cpc r20,r26
  72 0052 5B07      		cpc r21,r27
  73 0054 01F4      		brne .+2
  74 0056 00C0      		rjmp .L30
  75               	.LVL3:
  76               	.L6:
  77 0058 E091 0000 		lds r30,MsgTimer+4
  78 005c F091 0000 		lds r31,(MsgTimer+4)+1
  79 0060 3097      		sbiw r30,0
  80 0062 01F0      		breq .L9
  81 0064 2081      		ld r18,Z
  82 0066 3181      		ldd r19,Z+1
  83 0068 4281      		ldd r20,Z+2
  84 006a 5381      		ldd r21,Z+3
  85 006c 8881      		ld r24,Y
  86 006e 9981      		ldd r25,Y+1
  87 0070 AA81      		ldd r26,Y+2
  88 0072 BB81      		ldd r27,Y+3
  89 0074 2817      		cp r18,r24
  90 0076 3907      		cpc r19,r25
  91 0078 4A07      		cpc r20,r26
  92 007a 5B07      		cpc r21,r27
  93 007c 01F4      		brne .+2
  94 007e 00C0      		rjmp .L31
  95               	.LVL4:
  96               	.L9:
  97 0080 E091 0000 		lds r30,MsgTimer+6
  98 0084 F091 0000 		lds r31,(MsgTimer+6)+1
  99 0088 3097      		sbiw r30,0
 100 008a 01F0      		breq .L12
 101 008c 2081      		ld r18,Z
 102 008e 3181      		ldd r19,Z+1
 103 0090 4281      		ldd r20,Z+2
 104 0092 5381      		ldd r21,Z+3
 105 0094 8881      		ld r24,Y
 106 0096 9981      		ldd r25,Y+1
 107 0098 AA81      		ldd r26,Y+2
 108 009a BB81      		ldd r27,Y+3
 109 009c 2817      		cp r18,r24
 110 009e 3907      		cpc r19,r25
 111 00a0 4A07      		cpc r20,r26
 112 00a2 5B07      		cpc r21,r27
 113 00a4 01F4      		brne .+2
 114 00a6 00C0      		rjmp .L32
 115               	.LVL5:
 116               	.L12:
 117 00a8 E091 0000 		lds r30,MsgTimer+8
 118 00ac F091 0000 		lds r31,(MsgTimer+8)+1
 119 00b0 3097      		sbiw r30,0
 120 00b2 01F0      		breq .L15
 121 00b4 2081      		ld r18,Z
 122 00b6 3181      		ldd r19,Z+1
 123 00b8 4281      		ldd r20,Z+2
 124 00ba 5381      		ldd r21,Z+3
 125 00bc 8881      		ld r24,Y
 126 00be 9981      		ldd r25,Y+1
 127 00c0 AA81      		ldd r26,Y+2
 128 00c2 BB81      		ldd r27,Y+3
 129 00c4 2817      		cp r18,r24
 130 00c6 3907      		cpc r19,r25
 131 00c8 4A07      		cpc r20,r26
 132 00ca 5B07      		cpc r21,r27
 133 00cc 01F4      		brne .+2
 134 00ce 00C0      		rjmp .L33
 135               	.LVL6:
 136               	.L15:
 137 00d0 E091 0000 		lds r30,MsgTimer+10
 138 00d4 F091 0000 		lds r31,(MsgTimer+10)+1
 139 00d8 3097      		sbiw r30,0
 140 00da 01F0      		breq .L18
 141 00dc 2081      		ld r18,Z
 142 00de 3181      		ldd r19,Z+1
 143 00e0 4281      		ldd r20,Z+2
 144 00e2 5381      		ldd r21,Z+3
 145 00e4 8881      		ld r24,Y
 146 00e6 9981      		ldd r25,Y+1
 147 00e8 AA81      		ldd r26,Y+2
 148 00ea BB81      		ldd r27,Y+3
 149 00ec 2817      		cp r18,r24
 150 00ee 3907      		cpc r19,r25
 151 00f0 4A07      		cpc r20,r26
 152 00f2 5B07      		cpc r21,r27
 153 00f4 01F4      		brne .+2
 154 00f6 00C0      		rjmp .L34
 155               	.LVL7:
 156               	.L18:
 157 00f8 E091 0000 		lds r30,MsgTimer+12
 158 00fc F091 0000 		lds r31,(MsgTimer+12)+1
 159 0100 3097      		sbiw r30,0
 160 0102 01F0      		breq .L21
 161 0104 2081      		ld r18,Z
 162 0106 3181      		ldd r19,Z+1
 163 0108 4281      		ldd r20,Z+2
 164 010a 5381      		ldd r21,Z+3
 165 010c 8881      		ld r24,Y
 166 010e 9981      		ldd r25,Y+1
 167 0110 AA81      		ldd r26,Y+2
 168 0112 BB81      		ldd r27,Y+3
 169 0114 2817      		cp r18,r24
 170 0116 3907      		cpc r19,r25
 171 0118 4A07      		cpc r20,r26
 172 011a 5B07      		cpc r21,r27
 173 011c 01F0      		breq .L35
 174               	.LVL8:
 175               	.L21:
 176 011e E091 0000 		lds r30,MsgTimer+14
 177 0122 F091 0000 		lds r31,(MsgTimer+14)+1
 178 0126 3097      		sbiw r30,0
 179 0128 01F0      		breq .L24
 180 012a 2081      		ld r18,Z
 181 012c 3181      		ldd r19,Z+1
 182 012e 4281      		ldd r20,Z+2
 183 0130 5381      		ldd r21,Z+3
 184 0132 8881      		ld r24,Y
 185 0134 9981      		ldd r25,Y+1
 186 0136 AA81      		ldd r26,Y+2
 187 0138 BB81      		ldd r27,Y+3
 188 013a 2817      		cp r18,r24
 189 013c 3907      		cpc r19,r25
 190 013e 4A07      		cpc r20,r26
 191 0140 5B07      		cpc r21,r27
 192 0142 01F4      		brne .L24
 193 0144 00C0      		rjmp .L37
 194               	.L29:
 195 0146 C0E0      		ldi r28,lo8(0)
 196 0148 D0E0      		ldi r29,hi8(0)
 197               	.LVL9:
 198               	.L5:
 199               	.LM5:
 200 014a CF01      		movw r24,r30
 201 014c 0E94 0000 		call mem_freeMem
 202               	.LM6:
 203 0150 CC0F      		lsl r28
 204 0152 DD1F      		rol r29
 205 0154 C050      		subi r28,lo8(-(MsgTimer))
 206 0156 D040      		sbci r29,hi8(-(MsgTimer))
 207 0158 1982      		std Y+1,__zero_reg__
 208 015a 1882      		st Y,__zero_reg__
 209 015c 00C0      		rjmp .L24
 210               	.LVL10:
 211               	.L30:
 212               	.LM7:
 213 015e C1E0      		ldi r28,lo8(1)
 214 0160 D0E0      		ldi r29,hi8(1)
 215               	.LVL11:
 216 0162 00C0      		rjmp .L5
 217               	.LVL12:
 218               	.L31:
 219 0164 C2E0      		ldi r28,lo8(2)
 220 0166 D0E0      		ldi r29,hi8(2)
 221               	.LVL13:
 222 0168 00C0      		rjmp .L5
 223               	.LVL14:
 224               	.L32:
 225 016a C3E0      		ldi r28,lo8(3)
 226 016c D0E0      		ldi r29,hi8(3)
 227               	.LVL15:
 228 016e 00C0      		rjmp .L5
 229               	.LVL16:
 230               	.L33:
 231 0170 C4E0      		ldi r28,lo8(4)
 232 0172 D0E0      		ldi r29,hi8(4)
 233               	.LVL17:
 234 0174 00C0      		rjmp .L5
 235               	.LVL18:
 236               	.L34:
 237 0176 C5E0      		ldi r28,lo8(5)
 238 0178 D0E0      		ldi r29,hi8(5)
 239               	.LVL19:
 240 017a 00C0      		rjmp .L5
 241               	.LVL20:
 242               	.L35:
 243 017c C6E0      		ldi r28,lo8(6)
 244 017e D0E0      		ldi r29,hi8(6)
 245               	.LVL21:
 246 0180 00C0      		rjmp .L5
 247               	.LVL22:
 248               	.L37:
 249 0182 C7E0      		ldi r28,lo8(7)
 250 0184 D0E0      		ldi r29,hi8(7)
 251               	.LVL23:
 252 0186 00C0      		rjmp .L5
 253               	.LVL24:
 254               	.L24:
 255               	.LM8:
 256               	/* #APP */
 257 0188 7894      		sei
 258               		
 259               	/* #NOAPP */
 260               	/* epilogue: frame size=0 */
 261 018a DF91      		pop r29
 262 018c CF91      		pop r28
 263 018e 0895      		ret
 264               	/* epilogue end (size=3) */
 265               	/* function mtimer_endTmr size 205 (200) */
 266               	.LFE9:
 268               	.global	mtimer_creatTmr
 270               	mtimer_creatTmr:
 271               	.LFB8:
 272               	.LM9:
 273               	/* prologue: frame size=0 */
 274 0190 8F92      		push r8
 275 0192 9F92      		push r9
 276 0194 AF92      		push r10
 277 0196 BF92      		push r11
 278 0198 CF92      		push r12
 279 019a DF92      		push r13
 280 019c EF92      		push r14
 281 019e FF92      		push r15
 282 01a0 0F93      		push r16
 283 01a2 1F93      		push r17
 284 01a4 CF93      		push r28
 285 01a6 DF93      		push r29
 286               	/* prologue end (size=12) */
 287               	.LVL25:
 288 01a8 5C01      		movw r10,r24
 289 01aa 6A01      		movw r12,r20
 290 01ac 7B01      		movw r14,r22
 291 01ae 922E      		mov r9,r18
 292 01b0 802E      		mov r8,r16
 293               	.LM10:
 294               	/* #APP */
 295 01b2 F894      		cli
 296               		
 297               	.LM11:
 298               	/* #NOAPP */
 299 01b4 8091 0000 		lds r24,MsgTimer
 300 01b8 9091 0000 		lds r25,(MsgTimer)+1
 301               	.LVL26:
 302 01bc 892B      		or r24,r25
 303 01be 01F0      		breq .L62
 304               	.LVL27:
 305               	.LM12:
 306 01c0 8091 0000 		lds r24,MsgTimer+2
 307 01c4 9091 0000 		lds r25,(MsgTimer+2)+1
 308 01c8 892B      		or r24,r25
 309 01ca 01F4      		brne .+2
 310 01cc 00C0      		rjmp .L63
 311 01ce 8091 0000 		lds r24,MsgTimer+4
 312 01d2 9091 0000 		lds r25,(MsgTimer+4)+1
 313 01d6 892B      		or r24,r25
 314 01d8 01F4      		brne .+2
 315 01da 00C0      		rjmp .L64
 316 01dc 8091 0000 		lds r24,MsgTimer+6
 317 01e0 9091 0000 		lds r25,(MsgTimer+6)+1
 318 01e4 892B      		or r24,r25
 319 01e6 01F4      		brne .+2
 320 01e8 00C0      		rjmp .L65
 321 01ea 8091 0000 		lds r24,MsgTimer+8
 322 01ee 9091 0000 		lds r25,(MsgTimer+8)+1
 323 01f2 892B      		or r24,r25
 324 01f4 01F4      		brne .+2
 325 01f6 00C0      		rjmp .L66
 326 01f8 8091 0000 		lds r24,MsgTimer+10
 327 01fc 9091 0000 		lds r25,(MsgTimer+10)+1
 328 0200 892B      		or r24,r25
 329 0202 01F4      		brne .+2
 330 0204 00C0      		rjmp .L67
 331 0206 8091 0000 		lds r24,MsgTimer+12
 332 020a 9091 0000 		lds r25,(MsgTimer+12)+1
 333 020e 892B      		or r24,r25
 334 0210 01F4      		brne .+2
 335 0212 00C0      		rjmp .L68
 336 0214 8091 0000 		lds r24,MsgTimer+14
 337 0218 9091 0000 		lds r25,(MsgTimer+14)+1
 338 021c 892B      		or r24,r25
 339 021e 01F4      		brne .+2
 340 0220 00C0      		rjmp .L54
 341               	.LM13:
 342               	/* #APP */
 343 0222 7894      		sei
 344               		
 345               	/* #NOAPP */
 346 0224 80E0      		ldi r24,lo8(0)
 347 0226 90E0      		ldi r25,hi8(0)
 348 0228 00C0      		rjmp .L56
 349               	.L62:
 350               	.LM14:
 351 022a 00E0      		ldi r16,lo8(0)
 352 022c 10E0      		ldi r17,hi8(0)
 353               	.L41:
 354               	.LM15:
 355 022e 8EE0      		ldi r24,lo8(14)
 356 0230 90E0      		ldi r25,hi8(14)
 357 0232 0E94 0000 		call mem_getMem
 358 0236 EC01      		movw r28,r24
 359 0238 000F      		lsl r16
 360 023a 111F      		rol r17
 361 023c 0050      		subi r16,lo8(-(MsgTimer))
 362 023e 1040      		sbci r17,hi8(-(MsgTimer))
 363 0240 D801      		movw r26,r16
 364 0242 CD93      		st X+,r28
 365 0244 DC93      		st X,r29
 366               	.LM16:
 367 0246 2097      		sbiw r28,0
 368 0248 01F4      		brne .L57
 369               	.LM17:
 370               	/* #APP */
 371 024a 7894      		sei
 372               		
 373               	/* #NOAPP */
 374 024c 80E0      		ldi r24,lo8(0)
 375 024e 90E0      		ldi r25,hi8(0)
 376 0250 00C0      		rjmp .L56
 377               	.L57:
 378               	.LM18:
 379 0252 F501      		movw r30,r10
 380 0254 8081      		ld r24,Z
 381 0256 9181      		ldd r25,Z+1
 382 0258 A281      		ldd r26,Z+2
 383 025a B381      		ldd r27,Z+3
 384 025c 8883      		st Y,r24
 385 025e 9983      		std Y+1,r25
 386 0260 AA83      		std Y+2,r26
 387 0262 BB83      		std Y+3,r27
 388               	.LM19:
 389 0264 C701      		movw r24,r14
 390 0266 B601      		movw r22,r12
 391 0268 2EE1      		ldi r18,lo8(30)
 392 026a 30E0      		ldi r19,hi8(30)
 393 026c 40E0      		ldi r20,hlo8(30)
 394 026e 50E0      		ldi r21,hhi8(30)
 395 0270 0E94 0000 		call __udivmodsi4
 396 0274 2887      		std Y+8,r18
 397 0276 3987      		std Y+9,r19
 398 0278 4A87      		std Y+10,r20
 399 027a 5B87      		std Y+11,r21
 400               	.LM20:
 401 027c 2115      		cp r18,__zero_reg__
 402 027e 3105      		cpc r19,__zero_reg__
 403 0280 4105      		cpc r20,__zero_reg__
 404 0282 5105      		cpc r21,__zero_reg__
 405 0284 01F4      		brne .L59
 406               	.LM21:
 407 0286 81E0      		ldi r24,lo8(1)
 408 0288 90E0      		ldi r25,hi8(1)
 409 028a A0E0      		ldi r26,hlo8(1)
 410 028c B0E0      		ldi r27,hhi8(1)
 411 028e 8887      		std Y+8,r24
 412 0290 9987      		std Y+9,r25
 413 0292 AA87      		std Y+10,r26
 414 0294 BB87      		std Y+11,r27
 415               	.L59:
 416               	.LM22:
 417 0296 D801      		movw r26,r16
 418 0298 ED91      		ld r30,X+
 419 029a FC91      		ld r31,X
 420 029c 8085      		ldd r24,Z+8
 421 029e 9185      		ldd r25,Z+9
 422 02a0 A285      		ldd r26,Z+10
 423 02a2 B385      		ldd r27,Z+11
 424 02a4 2091 0000 		lds r18,MsgTimer+16
 425 02a8 3091 0000 		lds r19,(MsgTimer+16)+1
 426 02ac 4091 0000 		lds r20,(MsgTimer+16)+2
 427 02b0 5091 0000 		lds r21,(MsgTimer+16)+3
 428 02b4 820F      		add r24,r18
 429 02b6 931F      		adc r25,r19
 430 02b8 A41F      		adc r26,r20
 431 02ba B51F      		adc r27,r21
 432 02bc 8483      		std Z+4,r24
 433 02be 9583      		std Z+5,r25
 434 02c0 A683      		std Z+6,r26
 435 02c2 B783      		std Z+7,r27
 436               	.LM23:
 437 02c4 9486      		std Z+12,r9
 438               	.LM24:
 439 02c6 8586      		std Z+13,r8
 440               	.LM25:
 441               	/* #APP */
 442 02c8 7894      		sei
 443               		
 444               	/* #NOAPP */
 445 02ca 81E0      		ldi r24,lo8(1)
 446 02cc 90E0      		ldi r25,hi8(1)
 447 02ce 00C0      		rjmp .L56
 448               	.LVL28:
 449               	.L63:
 450               	.LM26:
 451 02d0 01E0      		ldi r16,lo8(1)
 452 02d2 10E0      		ldi r17,hi8(1)
 453 02d4 00C0      		rjmp .L41
 454               	.LVL29:
 455               	.L64:
 456 02d6 02E0      		ldi r16,lo8(2)
 457 02d8 10E0      		ldi r17,hi8(2)
 458 02da 00C0      		rjmp .L41
 459               	.LVL30:
 460               	.L65:
 461 02dc 03E0      		ldi r16,lo8(3)
 462 02de 10E0      		ldi r17,hi8(3)
 463 02e0 00C0      		rjmp .L41
 464               	.LVL31:
 465               	.L66:
 466 02e2 04E0      		ldi r16,lo8(4)
 467 02e4 10E0      		ldi r17,hi8(4)
 468 02e6 00C0      		rjmp .L41
 469               	.LVL32:
 470               	.L67:
 471 02e8 05E0      		ldi r16,lo8(5)
 472 02ea 10E0      		ldi r17,hi8(5)
 473 02ec 00C0      		rjmp .L41
 474               	.LVL33:
 475               	.L68:
 476 02ee 06E0      		ldi r16,lo8(6)
 477 02f0 10E0      		ldi r17,hi8(6)
 478 02f2 00C0      		rjmp .L41
 479               	.LVL34:
 480               	.L54:
 481               	.LM27:
 482 02f4 07E0      		ldi r16,lo8(7)
 483 02f6 10E0      		ldi r17,hi8(7)
 484 02f8 00C0      		rjmp .L41
 485               	.LVL35:
 486               	.L56:
 487               	/* epilogue: frame size=0 */
 488 02fa DF91      		pop r29
 489 02fc CF91      		pop r28
 490 02fe 1F91      		pop r17
 491 0300 0F91      		pop r16
 492 0302 FF90      		pop r15
 493 0304 EF90      		pop r14
 494 0306 DF90      		pop r13
 495 0308 CF90      		pop r12
 496 030a BF90      		pop r11
 497 030c AF90      		pop r10
 498 030e 9F90      		pop r9
 499 0310 8F90      		pop r8
 500 0312 0895      		ret
 501               	/* epilogue end (size=13) */
 502               	/* function mtimer_creatTmr size 206 (181) */
 503               	.LFE8:
 505               	.global	mtimer_dispatchTmrMsg
 507               	mtimer_dispatchTmrMsg:
 508               	.LFB7:
 509               	.LM28:
 510               	/* prologue: frame size=0 */
 511               	/* prologue end (size=0) */
 512               	.LVL36:
 513               	.LM29:
 514               	/* #APP */
 515 0314 F894      		cli
 516               		
 517               	.LM30:
 518               	/* #NOAPP */
 519 0316 2091 0000 		lds r18,MsgTimer+16
 520 031a 3091 0000 		lds r19,(MsgTimer+16)+1
 521 031e 4091 0000 		lds r20,(MsgTimer+16)+2
 522 0322 5091 0000 		lds r21,(MsgTimer+16)+3
 523 0326 2F5F      		subi r18,lo8(-(1))
 524 0328 3F4F      		sbci r19,hi8(-(1))
 525 032a 4F4F      		sbci r20,hlo8(-(1))
 526 032c 5F4F      		sbci r21,hhi8(-(1))
 527 032e 2093 0000 		sts MsgTimer+16,r18
 528 0332 3093 0000 		sts (MsgTimer+16)+1,r19
 529 0336 4093 0000 		sts (MsgTimer+16)+2,r20
 530 033a 5093 0000 		sts (MsgTimer+16)+3,r21
 531               	.LBB2:
 532               	.LM31:
 533 033e E091 0000 		lds r30,MsgTimer
 534 0342 F091 0000 		lds r31,(MsgTimer)+1
 535 0346 3097      		sbiw r30,0
 536 0348 01F0      		breq .L70
 537               	.LM32:
 538 034a 8481      		ldd r24,Z+4
 539 034c 9581      		ldd r25,Z+5
 540 034e A681      		ldd r26,Z+6
 541 0350 B781      		ldd r27,Z+7
 542               	.LVL37:
 543 0352 2817      		cp r18,r24
 544 0354 3907      		cpc r19,r25
 545 0356 4A07      		cpc r20,r26
 546 0358 5B07      		cpc r21,r27
 547 035a 01F4      		brne .+2
 548 035c 00C0      		rjmp .L111
 549               	.LVL38:
 550               	.L70:
 551               	.LM33:
 552 035e E091 0000 		lds r30,MsgTimer+2
 553 0362 F091 0000 		lds r31,(MsgTimer+2)+1
 554 0366 3097      		sbiw r30,0
 555 0368 01F0      		breq .L75
 556               	.LM34:
 557 036a 2481      		ldd r18,Z+4
 558 036c 3581      		ldd r19,Z+5
 559 036e 4681      		ldd r20,Z+6
 560 0370 5781      		ldd r21,Z+7
 561 0372 8091 0000 		lds r24,MsgTimer+16
 562 0376 9091 0000 		lds r25,(MsgTimer+16)+1
 563 037a A091 0000 		lds r26,(MsgTimer+16)+2
 564 037e B091 0000 		lds r27,(MsgTimer+16)+3
 565               	.LVL39:
 566 0382 2817      		cp r18,r24
 567 0384 3907      		cpc r19,r25
 568 0386 4A07      		cpc r20,r26
 569 0388 5B07      		cpc r21,r27
 570 038a 01F4      		brne .+2
 571 038c 00C0      		rjmp .L112
 572               	.LVL40:
 573               	.L75:
 574               	.LM35:
 575 038e E091 0000 		lds r30,MsgTimer+4
 576 0392 F091 0000 		lds r31,(MsgTimer+4)+1
 577 0396 3097      		sbiw r30,0
 578 0398 01F0      		breq .L80
 579               	.LM36:
 580 039a 2481      		ldd r18,Z+4
 581 039c 3581      		ldd r19,Z+5
 582 039e 4681      		ldd r20,Z+6
 583 03a0 5781      		ldd r21,Z+7
 584 03a2 8091 0000 		lds r24,MsgTimer+16
 585 03a6 9091 0000 		lds r25,(MsgTimer+16)+1
 586 03aa A091 0000 		lds r26,(MsgTimer+16)+2
 587 03ae B091 0000 		lds r27,(MsgTimer+16)+3
 588               	.LVL41:
 589 03b2 2817      		cp r18,r24
 590 03b4 3907      		cpc r19,r25
 591 03b6 4A07      		cpc r20,r26
 592 03b8 5B07      		cpc r21,r27
 593 03ba 01F4      		brne .+2
 594 03bc 00C0      		rjmp .L113
 595               	.LVL42:
 596               	.L80:
 597               	.LM37:
 598 03be E091 0000 		lds r30,MsgTimer+6
 599 03c2 F091 0000 		lds r31,(MsgTimer+6)+1
 600 03c6 3097      		sbiw r30,0
 601 03c8 01F0      		breq .L85
 602               	.LM38:
 603 03ca 2481      		ldd r18,Z+4
 604 03cc 3581      		ldd r19,Z+5
 605 03ce 4681      		ldd r20,Z+6
 606 03d0 5781      		ldd r21,Z+7
 607 03d2 8091 0000 		lds r24,MsgTimer+16
 608 03d6 9091 0000 		lds r25,(MsgTimer+16)+1
 609 03da A091 0000 		lds r26,(MsgTimer+16)+2
 610 03de B091 0000 		lds r27,(MsgTimer+16)+3
 611               	.LVL43:
 612 03e2 2817      		cp r18,r24
 613 03e4 3907      		cpc r19,r25
 614 03e6 4A07      		cpc r20,r26
 615 03e8 5B07      		cpc r21,r27
 616 03ea 01F4      		brne .+2
 617 03ec 00C0      		rjmp .L114
 618               	.LVL44:
 619               	.L85:
 620               	.LM39:
 621 03ee E091 0000 		lds r30,MsgTimer+8
 622 03f2 F091 0000 		lds r31,(MsgTimer+8)+1
 623 03f6 3097      		sbiw r30,0
 624 03f8 01F0      		breq .L90
 625               	.LM40:
 626 03fa 2481      		ldd r18,Z+4
 627 03fc 3581      		ldd r19,Z+5
 628 03fe 4681      		ldd r20,Z+6
 629 0400 5781      		ldd r21,Z+7
 630 0402 8091 0000 		lds r24,MsgTimer+16
 631 0406 9091 0000 		lds r25,(MsgTimer+16)+1
 632 040a A091 0000 		lds r26,(MsgTimer+16)+2
 633 040e B091 0000 		lds r27,(MsgTimer+16)+3
 634               	.LVL45:
 635 0412 2817      		cp r18,r24
 636 0414 3907      		cpc r19,r25
 637 0416 4A07      		cpc r20,r26
 638 0418 5B07      		cpc r21,r27
 639 041a 01F4      		brne .+2
 640 041c 00C0      		rjmp .L115
 641               	.LVL46:
 642               	.L90:
 643               	.LM41:
 644 041e E091 0000 		lds r30,MsgTimer+10
 645 0422 F091 0000 		lds r31,(MsgTimer+10)+1
 646 0426 3097      		sbiw r30,0
 647 0428 01F0      		breq .L95
 648               	.LM42:
 649 042a 2481      		ldd r18,Z+4
 650 042c 3581      		ldd r19,Z+5
 651 042e 4681      		ldd r20,Z+6
 652 0430 5781      		ldd r21,Z+7
 653 0432 8091 0000 		lds r24,MsgTimer+16
 654 0436 9091 0000 		lds r25,(MsgTimer+16)+1
 655 043a A091 0000 		lds r26,(MsgTimer+16)+2
 656 043e B091 0000 		lds r27,(MsgTimer+16)+3
 657               	.LVL47:
 658 0442 2817      		cp r18,r24
 659 0444 3907      		cpc r19,r25
 660 0446 4A07      		cpc r20,r26
 661 0448 5B07      		cpc r21,r27
 662 044a 01F4      		brne .+2
 663 044c 00C0      		rjmp .L116
 664               	.LVL48:
 665               	.L95:
 666               	.LM43:
 667 044e E091 0000 		lds r30,MsgTimer+12
 668 0452 F091 0000 		lds r31,(MsgTimer+12)+1
 669 0456 3097      		sbiw r30,0
 670 0458 01F0      		breq .L100
 671               	.LM44:
 672 045a 2481      		ldd r18,Z+4
 673 045c 3581      		ldd r19,Z+5
 674 045e 4681      		ldd r20,Z+6
 675 0460 5781      		ldd r21,Z+7
 676 0462 8091 0000 		lds r24,MsgTimer+16
 677 0466 9091 0000 		lds r25,(MsgTimer+16)+1
 678 046a A091 0000 		lds r26,(MsgTimer+16)+2
 679 046e B091 0000 		lds r27,(MsgTimer+16)+3
 680               	.LVL49:
 681 0472 2817      		cp r18,r24
 682 0474 3907      		cpc r19,r25
 683 0476 4A07      		cpc r20,r26
 684 0478 5B07      		cpc r21,r27
 685 047a 01F4      		brne .+2
 686 047c 00C0      		rjmp .L117
 687               	.LVL50:
 688               	.L100:
 689               	.LM45:
 690 047e E091 0000 		lds r30,MsgTimer+14
 691 0482 F091 0000 		lds r31,(MsgTimer+14)+1
 692 0486 3097      		sbiw r30,0
 693 0488 01F4      		brne .+2
 694 048a 00C0      		rjmp .L105
 695               	.LM46:
 696 048c 2481      		ldd r18,Z+4
 697 048e 3581      		ldd r19,Z+5
 698 0490 4681      		ldd r20,Z+6
 699 0492 5781      		ldd r21,Z+7
 700 0494 8091 0000 		lds r24,MsgTimer+16
 701 0498 9091 0000 		lds r25,(MsgTimer+16)+1
 702 049c A091 0000 		lds r26,(MsgTimer+16)+2
 703 04a0 B091 0000 		lds r27,(MsgTimer+16)+3
 704               	.LVL51:
 705 04a4 2817      		cp r18,r24
 706 04a6 3907      		cpc r19,r25
 707 04a8 4A07      		cpc r20,r26
 708 04aa 5B07      		cpc r21,r27
 709 04ac 01F0      		breq .+2
 710 04ae 00C0      		rjmp .L105
 711 04b0 00C0      		rjmp .L126
 712               	.L111:
 713               	.LM47:
 714 04b2 8585      		ldd r24,Z+13
 715 04b4 BF01      		movw r22,r30
 716               	.LVL52:
 717 04b6 9927      		clr r25
 718 04b8 0E94 0000 		call schedul_sendMsg
 719               	.LM48:
 720 04bc E091 0000 		lds r30,MsgTimer
 721 04c0 F091 0000 		lds r31,(MsgTimer)+1
 722 04c4 8485      		ldd r24,Z+12
 723 04c6 8823      		tst r24
 724 04c8 01F4      		brne .+2
 725 04ca 00C0      		rjmp .L119
 726               	.LM49:
 727 04cc 8091 0000 		lds r24,MsgTimer+16
 728 04d0 9091 0000 		lds r25,(MsgTimer+16)+1
 729 04d4 A091 0000 		lds r26,(MsgTimer+16)+2
 730 04d8 B091 0000 		lds r27,(MsgTimer+16)+3
 731 04dc 2085      		ldd r18,Z+8
 732 04de 3185      		ldd r19,Z+9
 733 04e0 4285      		ldd r20,Z+10
 734 04e2 5385      		ldd r21,Z+11
 735 04e4 820F      		add r24,r18
 736 04e6 931F      		adc r25,r19
 737 04e8 A41F      		adc r26,r20
 738 04ea B51F      		adc r27,r21
 739 04ec 8483      		std Z+4,r24
 740 04ee 9583      		std Z+5,r25
 741 04f0 A683      		std Z+6,r26
 742 04f2 B783      		std Z+7,r27
 743 04f4 00C0      		rjmp .L70
 744               	.LVL53:
 745               	.L112:
 746               	.LM50:
 747 04f6 8585      		ldd r24,Z+13
 748 04f8 BF01      		movw r22,r30
 749               	.LVL54:
 750 04fa 9927      		clr r25
 751 04fc 0E94 0000 		call schedul_sendMsg
 752               	.LM51:
 753 0500 E091 0000 		lds r30,MsgTimer+2
 754 0504 F091 0000 		lds r31,(MsgTimer+2)+1
 755 0508 8485      		ldd r24,Z+12
 756 050a 8823      		tst r24
 757 050c 01F4      		brne .+2
 758 050e 00C0      		rjmp .L120
 759               	.LM52:
 760 0510 8091 0000 		lds r24,MsgTimer+16
 761 0514 9091 0000 		lds r25,(MsgTimer+16)+1
 762 0518 A091 0000 		lds r26,(MsgTimer+16)+2
 763 051c B091 0000 		lds r27,(MsgTimer+16)+3
 764 0520 2085      		ldd r18,Z+8
 765 0522 3185      		ldd r19,Z+9
 766 0524 4285      		ldd r20,Z+10
 767 0526 5385      		ldd r21,Z+11
 768 0528 820F      		add r24,r18
 769 052a 931F      		adc r25,r19
 770 052c A41F      		adc r26,r20
 771 052e B51F      		adc r27,r21
 772 0530 8483      		std Z+4,r24
 773 0532 9583      		std Z+5,r25
 774 0534 A683      		std Z+6,r26
 775 0536 B783      		std Z+7,r27
 776 0538 00C0      		rjmp .L75
 777               	.LVL55:
 778               	.L113:
 779               	.LM53:
 780 053a 8585      		ldd r24,Z+13
 781 053c BF01      		movw r22,r30
 782               	.LVL56:
 783 053e 9927      		clr r25
 784 0540 0E94 0000 		call schedul_sendMsg
 785               	.LM54:
 786 0544 E091 0000 		lds r30,MsgTimer+4
 787 0548 F091 0000 		lds r31,(MsgTimer+4)+1
 788 054c 8485      		ldd r24,Z+12
 789 054e 8823      		tst r24
 790 0550 01F4      		brne .+2
 791 0552 00C0      		rjmp .L121
 792               	.LM55:
 793 0554 8091 0000 		lds r24,MsgTimer+16
 794 0558 9091 0000 		lds r25,(MsgTimer+16)+1
 795 055c A091 0000 		lds r26,(MsgTimer+16)+2
 796 0560 B091 0000 		lds r27,(MsgTimer+16)+3
 797 0564 2085      		ldd r18,Z+8
 798 0566 3185      		ldd r19,Z+9
 799 0568 4285      		ldd r20,Z+10
 800 056a 5385      		ldd r21,Z+11
 801 056c 820F      		add r24,r18
 802 056e 931F      		adc r25,r19
 803 0570 A41F      		adc r26,r20
 804 0572 B51F      		adc r27,r21
 805 0574 8483      		std Z+4,r24
 806 0576 9583      		std Z+5,r25
 807 0578 A683      		std Z+6,r26
 808 057a B783      		std Z+7,r27
 809 057c 00C0      		rjmp .L80
 810               	.LVL57:
 811               	.L114:
 812               	.LM56:
 813 057e 8585      		ldd r24,Z+13
 814 0580 BF01      		movw r22,r30
 815               	.LVL58:
 816 0582 9927      		clr r25
 817 0584 0E94 0000 		call schedul_sendMsg
 818               	.LM57:
 819 0588 E091 0000 		lds r30,MsgTimer+6
 820 058c F091 0000 		lds r31,(MsgTimer+6)+1
 821 0590 8485      		ldd r24,Z+12
 822 0592 8823      		tst r24
 823 0594 01F4      		brne .+2
 824 0596 00C0      		rjmp .L122
 825               	.LM58:
 826 0598 8091 0000 		lds r24,MsgTimer+16
 827 059c 9091 0000 		lds r25,(MsgTimer+16)+1
 828 05a0 A091 0000 		lds r26,(MsgTimer+16)+2
 829 05a4 B091 0000 		lds r27,(MsgTimer+16)+3
 830 05a8 2085      		ldd r18,Z+8
 831 05aa 3185      		ldd r19,Z+9
 832 05ac 4285      		ldd r20,Z+10
 833 05ae 5385      		ldd r21,Z+11
 834 05b0 820F      		add r24,r18
 835 05b2 931F      		adc r25,r19
 836 05b4 A41F      		adc r26,r20
 837 05b6 B51F      		adc r27,r21
 838 05b8 8483      		std Z+4,r24
 839 05ba 9583      		std Z+5,r25
 840 05bc A683      		std Z+6,r26
 841 05be B783      		std Z+7,r27
 842 05c0 00C0      		rjmp .L85
 843               	.LVL59:
 844               	.L115:
 845               	.LM59:
 846 05c2 8585      		ldd r24,Z+13
 847 05c4 BF01      		movw r22,r30
 848               	.LVL60:
 849 05c6 9927      		clr r25
 850 05c8 0E94 0000 		call schedul_sendMsg
 851               	.LM60:
 852 05cc E091 0000 		lds r30,MsgTimer+8
 853 05d0 F091 0000 		lds r31,(MsgTimer+8)+1
 854 05d4 8485      		ldd r24,Z+12
 855 05d6 8823      		tst r24
 856 05d8 01F4      		brne .+2
 857 05da 00C0      		rjmp .L123
 858               	.LM61:
 859 05dc 8091 0000 		lds r24,MsgTimer+16
 860 05e0 9091 0000 		lds r25,(MsgTimer+16)+1
 861 05e4 A091 0000 		lds r26,(MsgTimer+16)+2
 862 05e8 B091 0000 		lds r27,(MsgTimer+16)+3
 863 05ec 2085      		ldd r18,Z+8
 864 05ee 3185      		ldd r19,Z+9
 865 05f0 4285      		ldd r20,Z+10
 866 05f2 5385      		ldd r21,Z+11
 867 05f4 820F      		add r24,r18
 868 05f6 931F      		adc r25,r19
 869 05f8 A41F      		adc r26,r20
 870 05fa B51F      		adc r27,r21
 871 05fc 8483      		std Z+4,r24
 872 05fe 9583      		std Z+5,r25
 873 0600 A683      		std Z+6,r26
 874 0602 B783      		std Z+7,r27
 875 0604 00C0      		rjmp .L90
 876               	.LVL61:
 877               	.L116:
 878               	.LM62:
 879 0606 8585      		ldd r24,Z+13
 880 0608 BF01      		movw r22,r30
 881               	.LVL62:
 882 060a 9927      		clr r25
 883 060c 0E94 0000 		call schedul_sendMsg
 884               	.LM63:
 885 0610 E091 0000 		lds r30,MsgTimer+10
 886 0614 F091 0000 		lds r31,(MsgTimer+10)+1
 887 0618 8485      		ldd r24,Z+12
 888 061a 8823      		tst r24
 889 061c 01F4      		brne .+2
 890 061e 00C0      		rjmp .L124
 891               	.LM64:
 892 0620 8091 0000 		lds r24,MsgTimer+16
 893 0624 9091 0000 		lds r25,(MsgTimer+16)+1
 894 0628 A091 0000 		lds r26,(MsgTimer+16)+2
 895 062c B091 0000 		lds r27,(MsgTimer+16)+3
 896 0630 2085      		ldd r18,Z+8
 897 0632 3185      		ldd r19,Z+9
 898 0634 4285      		ldd r20,Z+10
 899 0636 5385      		ldd r21,Z+11
 900 0638 820F      		add r24,r18
 901 063a 931F      		adc r25,r19
 902 063c A41F      		adc r26,r20
 903 063e B51F      		adc r27,r21
 904 0640 8483      		std Z+4,r24
 905 0642 9583      		std Z+5,r25
 906 0644 A683      		std Z+6,r26
 907 0646 B783      		std Z+7,r27
 908 0648 00C0      		rjmp .L95
 909               	.LVL63:
 910               	.L117:
 911               	.LM65:
 912 064a 8585      		ldd r24,Z+13
 913 064c BF01      		movw r22,r30
 914               	.LVL64:
 915 064e 9927      		clr r25
 916 0650 0E94 0000 		call schedul_sendMsg
 917               	.LM66:
 918 0654 E091 0000 		lds r30,MsgTimer+12
 919 0658 F091 0000 		lds r31,(MsgTimer+12)+1
 920 065c 8485      		ldd r24,Z+12
 921 065e 8823      		tst r24
 922 0660 01F4      		brne .+2
 923 0662 00C0      		rjmp .L125
 924               	.LM67:
 925 0664 8091 0000 		lds r24,MsgTimer+16
 926 0668 9091 0000 		lds r25,(MsgTimer+16)+1
 927 066c A091 0000 		lds r26,(MsgTimer+16)+2
 928 0670 B091 0000 		lds r27,(MsgTimer+16)+3
 929 0674 2085      		ldd r18,Z+8
 930 0676 3185      		ldd r19,Z+9
 931 0678 4285      		ldd r20,Z+10
 932 067a 5385      		ldd r21,Z+11
 933 067c 820F      		add r24,r18
 934 067e 931F      		adc r25,r19
 935 0680 A41F      		adc r26,r20
 936 0682 B51F      		adc r27,r21
 937 0684 8483      		std Z+4,r24
 938 0686 9583      		std Z+5,r25
 939 0688 A683      		std Z+6,r26
 940 068a B783      		std Z+7,r27
 941 068c 00C0      		rjmp .L100
 942               	.LVL65:
 943               	.L126:
 944               	.LM68:
 945 068e 8585      		ldd r24,Z+13
 946 0690 BF01      		movw r22,r30
 947               	.LVL66:
 948 0692 9927      		clr r25
 949 0694 0E94 0000 		call schedul_sendMsg
 950               	.LM69:
 951 0698 E091 0000 		lds r30,MsgTimer+14
 952 069c F091 0000 		lds r31,(MsgTimer+14)+1
 953 06a0 8485      		ldd r24,Z+12
 954 06a2 8823      		tst r24
 955 06a4 01F0      		breq .L108
 956               	.LM70:
 957 06a6 8091 0000 		lds r24,MsgTimer+16
 958 06aa 9091 0000 		lds r25,(MsgTimer+16)+1
 959 06ae A091 0000 		lds r26,(MsgTimer+16)+2
 960 06b2 B091 0000 		lds r27,(MsgTimer+16)+3
 961 06b6 2085      		ldd r18,Z+8
 962 06b8 3185      		ldd r19,Z+9
 963 06ba 4285      		ldd r20,Z+10
 964 06bc 5385      		ldd r21,Z+11
 965 06be 820F      		add r24,r18
 966 06c0 931F      		adc r25,r19
 967 06c2 A41F      		adc r26,r20
 968 06c4 B51F      		adc r27,r21
 969 06c6 8483      		std Z+4,r24
 970 06c8 9583      		std Z+5,r25
 971 06ca A683      		std Z+6,r26
 972 06cc B783      		std Z+7,r27
 973 06ce 00C0      		rjmp .L105
 974               	.L119:
 975               	.LM71:
 976 06d0 CF01      		movw r24,r30
 977 06d2 0E94 0000 		call mem_freeMem
 978               	.LM72:
 979 06d6 1092 0000 		sts (MsgTimer)+1,__zero_reg__
 980 06da 1092 0000 		sts MsgTimer,__zero_reg__
 981 06de 00C0      		rjmp .L70
 982               	.L108:
 983               	.LM73:
 984 06e0 CF01      		movw r24,r30
 985 06e2 0E94 0000 		call mem_freeMem
 986               	.LM74:
 987 06e6 1092 0000 		sts (MsgTimer+14)+1,__zero_reg__
 988 06ea 1092 0000 		sts MsgTimer+14,__zero_reg__
 989 06ee 00C0      		rjmp .L105
 990               	.L125:
 991               	.LM75:
 992 06f0 CF01      		movw r24,r30
 993 06f2 0E94 0000 		call mem_freeMem
 994               	.LM76:
 995 06f6 1092 0000 		sts (MsgTimer+12)+1,__zero_reg__
 996 06fa 1092 0000 		sts MsgTimer+12,__zero_reg__
 997 06fe 00C0      		rjmp .L100
 998               	.L124:
 999               	.LM77:
 1000 0700 CF01      		movw r24,r30
 1001 0702 0E94 0000 		call mem_freeMem
 1002               	.LM78:
 1003 0706 1092 0000 		sts (MsgTimer+10)+1,__zero_reg__
 1004 070a 1092 0000 		sts MsgTimer+10,__zero_reg__
 1005 070e 00C0      		rjmp .L95
 1006               	.L123:
 1007               	.LM79:
 1008 0710 CF01      		movw r24,r30
 1009 0712 0E94 0000 		call mem_freeMem
 1010               	.LM80:
 1011 0716 1092 0000 		sts (MsgTimer+8)+1,__zero_reg__
 1012 071a 1092 0000 		sts MsgTimer+8,__zero_reg__
 1013 071e 00C0      		rjmp .L90
 1014               	.L122:
 1015               	.LM81:
 1016 0720 CF01      		movw r24,r30
 1017 0722 0E94 0000 		call mem_freeMem
 1018               	.LM82:
 1019 0726 1092 0000 		sts (MsgTimer+6)+1,__zero_reg__
 1020 072a 1092 0000 		sts MsgTimer+6,__zero_reg__
 1021 072e 00C0      		rjmp .L85
 1022               	.L121:
 1023               	.LM83:
 1024 0730 CF01      		movw r24,r30
 1025 0732 0E94 0000 		call mem_freeMem
 1026               	.LM84:
 1027 0736 1092 0000 		sts (MsgTimer+4)+1,__zero_reg__
 1028 073a 1092 0000 		sts MsgTimer+4,__zero_reg__
 1029 073e 00C0      		rjmp .L80
 1030               	.L120:
 1031               	.LM85:
 1032 0740 CF01      		movw r24,r30
 1033 0742 0E94 0000 		call mem_freeMem
 1034               	.LM86:
 1035 0746 1092 0000 		sts (MsgTimer+2)+1,__zero_reg__
 1036 074a 1092 0000 		sts MsgTimer+2,__zero_reg__
 1037 074e 00C0      		rjmp .L75
 1038               	.LVL67:
 1039               	.L105:
 1040               	.LBE2:
 1041               	.LM87:
 1042               	/* #APP */
 1043 0750 7894      		sei
 1044               		
 1045               	/* #NOAPP */
 1046               	/* epilogue: frame size=0 */
 1047 0752 0895      		ret
 1048               	/* epilogue end (size=1) */
 1049               	/* function mtimer_dispatchTmrMsg size 550 (549) */
 1050               	.LFE7:
 1052               	.global	timer_init
 1054               	timer_init:
 1055               	.LFB2:
 1056               	.LM88:
 1057               	/* prologue: frame size=1 */
 1058 0754 8F92      		push r8
 1059 0756 9F92      		push r9
 1060 0758 AF92      		push r10
 1061 075a BF92      		push r11
 1062 075c CF92      		push r12
 1063 075e DF92      		push r13
 1064 0760 EF92      		push r14
 1065 0762 FF92      		push r15
 1066 0764 0F93      		push r16
 1067 0766 CF93      		push r28
 1068 0768 DF93      		push r29
 1069 076a CDB7      		in r28,__SP_L__
 1070 076c DEB7      		in r29,__SP_H__
 1071 076e 2197      		sbiw r28,1
 1072 0770 0FB6      		in __tmp_reg__,__SREG__
 1073 0772 F894      		cli
 1074 0774 DEBF      		out __SP_H__,r29
 1075 0776 0FBE      		out __SREG__,__tmp_reg__
 1076 0778 CDBF      		out __SP_L__,r28
 1077               	/* prologue end (size=19) */
 1078               	.LBB3:
 1079               	.LM89:
 1080 077a E090 0000 		lds r14,TimerList+2
 1081 077e F090 0000 		lds r15,(TimerList+2)+1
 1082 0782 E114      		cp r14,__zero_reg__
 1083 0784 F104      		cpc r15,__zero_reg__
 1084 0786 01F0      		breq .L128
 1085               	.LM90:
 1086 0788 4E01      		movw r8,r28
 1087 078a 0894      		sec
 1088 078c 811C      		adc r8,__zero_reg__
 1089 078e 911C      		adc r9,__zero_reg__
 1090 0790 AA24      		clr r10
 1091 0792 BB24      		clr r11
 1092 0794 CC24      		clr r12
 1093 0796 DD24      		clr r13
 1094 0798 01E0      		ldi r16,lo8(1)
 1095 079a 21E0      		ldi r18,lo8(1)
 1096 079c 30E0      		ldi r19,hi8(1)
 1097 079e 40E0      		ldi r20,hlo8(1)
 1098 07a0 50E0      		ldi r21,hhi8(1)
 1099 07a2 60E0      		ldi r22,lo8(0)
 1100 07a4 70E0      		ldi r23,hi8(0)
 1101 07a6 80E0      		ldi r24,hlo8(0)
 1102 07a8 90E0      		ldi r25,hhi8(0)
 1103 07aa 0E94 0000 		call OSTmrCreate
 1104 07ae 9093 0000 		sts (TimerList)+1,r25
 1105 07b2 8093 0000 		sts TimerList,r24
 1106               	.L128:
 1107               	.LM91:
 1108 07b6 E090 0000 		lds r14,TimerList+6
 1109 07ba F090 0000 		lds r15,(TimerList+6)+1
 1110 07be E114      		cp r14,__zero_reg__
 1111 07c0 F104      		cpc r15,__zero_reg__
 1112 07c2 01F0      		breq .L130
 1113               	.LM92:
 1114 07c4 4E01      		movw r8,r28
 1115 07c6 0894      		sec
 1116 07c8 811C      		adc r8,__zero_reg__
 1117 07ca 911C      		adc r9,__zero_reg__
 1118 07cc AA24      		clr r10
 1119 07ce BB24      		clr r11
 1120 07d0 CC24      		clr r12
 1121 07d2 DD24      		clr r13
 1122 07d4 01E0      		ldi r16,lo8(1)
 1123 07d6 21E0      		ldi r18,lo8(1)
 1124 07d8 30E0      		ldi r19,hi8(1)
 1125 07da 40E0      		ldi r20,hlo8(1)
 1126 07dc 50E0      		ldi r21,hhi8(1)
 1127 07de 60E0      		ldi r22,lo8(0)
 1128 07e0 70E0      		ldi r23,hi8(0)
 1129 07e2 80E0      		ldi r24,hlo8(0)
 1130 07e4 90E0      		ldi r25,hhi8(0)
 1131 07e6 0E94 0000 		call OSTmrCreate
 1132 07ea 9093 0000 		sts (TimerList+4)+1,r25
 1133 07ee 8093 0000 		sts TimerList+4,r24
 1134               	.L130:
 1135               	.LM93:
 1136 07f2 E090 0000 		lds r14,TimerList+10
 1137 07f6 F090 0000 		lds r15,(TimerList+10)+1
 1138 07fa E114      		cp r14,__zero_reg__
 1139 07fc F104      		cpc r15,__zero_reg__
 1140 07fe 01F0      		breq .L132
 1141               	.LM94:
 1142 0800 4E01      		movw r8,r28
 1143 0802 0894      		sec
 1144 0804 811C      		adc r8,__zero_reg__
 1145 0806 911C      		adc r9,__zero_reg__
 1146 0808 AA24      		clr r10
 1147 080a BB24      		clr r11
 1148 080c CC24      		clr r12
 1149 080e DD24      		clr r13
 1150 0810 01E0      		ldi r16,lo8(1)
 1151 0812 21E0      		ldi r18,lo8(1)
 1152 0814 30E0      		ldi r19,hi8(1)
 1153 0816 40E0      		ldi r20,hlo8(1)
 1154 0818 50E0      		ldi r21,hhi8(1)
 1155 081a 60E0      		ldi r22,lo8(0)
 1156 081c 70E0      		ldi r23,hi8(0)
 1157 081e 80E0      		ldi r24,hlo8(0)
 1158 0820 90E0      		ldi r25,hhi8(0)
 1159 0822 0E94 0000 		call OSTmrCreate
 1160 0826 9093 0000 		sts (TimerList+8)+1,r25
 1161 082a 8093 0000 		sts TimerList+8,r24
 1162               	.L132:
 1163               	.LM95:
 1164 082e E090 0000 		lds r14,TimerList+14
 1165 0832 F090 0000 		lds r15,(TimerList+14)+1
 1166 0836 E114      		cp r14,__zero_reg__
 1167 0838 F104      		cpc r15,__zero_reg__
 1168 083a 01F0      		breq .L134
 1169               	.LM96:
 1170 083c 4E01      		movw r8,r28
 1171 083e 0894      		sec
 1172 0840 811C      		adc r8,__zero_reg__
 1173 0842 911C      		adc r9,__zero_reg__
 1174 0844 AA24      		clr r10
 1175 0846 BB24      		clr r11
 1176 0848 CC24      		clr r12
 1177 084a DD24      		clr r13
 1178 084c 01E0      		ldi r16,lo8(1)
 1179 084e 21E0      		ldi r18,lo8(1)
 1180 0850 30E0      		ldi r19,hi8(1)
 1181 0852 40E0      		ldi r20,hlo8(1)
 1182 0854 50E0      		ldi r21,hhi8(1)
 1183 0856 60E0      		ldi r22,lo8(0)
 1184 0858 70E0      		ldi r23,hi8(0)
 1185 085a 80E0      		ldi r24,hlo8(0)
 1186 085c 90E0      		ldi r25,hhi8(0)
 1187 085e 0E94 0000 		call OSTmrCreate
 1188 0862 9093 0000 		sts (TimerList+12)+1,r25
 1189 0866 8093 0000 		sts TimerList+12,r24
 1190               	.L134:
 1191               	.LM97:
 1192 086a E090 0000 		lds r14,TimerList+18
 1193 086e F090 0000 		lds r15,(TimerList+18)+1
 1194 0872 E114      		cp r14,__zero_reg__
 1195 0874 F104      		cpc r15,__zero_reg__
 1196 0876 01F0      		breq .L136
 1197               	.LM98:
 1198 0878 4E01      		movw r8,r28
 1199 087a 0894      		sec
 1200 087c 811C      		adc r8,__zero_reg__
 1201 087e 911C      		adc r9,__zero_reg__
 1202 0880 AA24      		clr r10
 1203 0882 BB24      		clr r11
 1204 0884 CC24      		clr r12
 1205 0886 DD24      		clr r13
 1206 0888 01E0      		ldi r16,lo8(1)
 1207 088a 21E0      		ldi r18,lo8(1)
 1208 088c 30E0      		ldi r19,hi8(1)
 1209 088e 40E0      		ldi r20,hlo8(1)
 1210 0890 50E0      		ldi r21,hhi8(1)
 1211 0892 60E0      		ldi r22,lo8(0)
 1212 0894 70E0      		ldi r23,hi8(0)
 1213 0896 80E0      		ldi r24,hlo8(0)
 1214 0898 90E0      		ldi r25,hhi8(0)
 1215 089a 0E94 0000 		call OSTmrCreate
 1216 089e 9093 0000 		sts (TimerList+16)+1,r25
 1217 08a2 8093 0000 		sts TimerList+16,r24
 1218               	.L136:
 1219               	.LM99:
 1220 08a6 E090 0000 		lds r14,TimerList+22
 1221 08aa F090 0000 		lds r15,(TimerList+22)+1
 1222 08ae E114      		cp r14,__zero_reg__
 1223 08b0 F104      		cpc r15,__zero_reg__
 1224 08b2 01F0      		breq .L138
 1225               	.LM100:
 1226 08b4 4E01      		movw r8,r28
 1227 08b6 0894      		sec
 1228 08b8 811C      		adc r8,__zero_reg__
 1229 08ba 911C      		adc r9,__zero_reg__
 1230 08bc AA24      		clr r10
 1231 08be BB24      		clr r11
 1232 08c0 CC24      		clr r12
 1233 08c2 DD24      		clr r13
 1234 08c4 01E0      		ldi r16,lo8(1)
 1235 08c6 21E0      		ldi r18,lo8(1)
 1236 08c8 30E0      		ldi r19,hi8(1)
 1237 08ca 40E0      		ldi r20,hlo8(1)
 1238 08cc 50E0      		ldi r21,hhi8(1)
 1239 08ce 60E0      		ldi r22,lo8(0)
 1240 08d0 70E0      		ldi r23,hi8(0)
 1241 08d2 80E0      		ldi r24,hlo8(0)
 1242 08d4 90E0      		ldi r25,hhi8(0)
 1243 08d6 0E94 0000 		call OSTmrCreate
 1244 08da 9093 0000 		sts (TimerList+20)+1,r25
 1245 08de 8093 0000 		sts TimerList+20,r24
 1246               	.L138:
 1247               	.LM101:
 1248 08e2 E090 0000 		lds r14,TimerList+26
 1249 08e6 F090 0000 		lds r15,(TimerList+26)+1
 1250 08ea E114      		cp r14,__zero_reg__
 1251 08ec F104      		cpc r15,__zero_reg__
 1252 08ee 01F0      		breq .L140
 1253               	.LM102:
 1254 08f0 4E01      		movw r8,r28
 1255 08f2 0894      		sec
 1256 08f4 811C      		adc r8,__zero_reg__
 1257 08f6 911C      		adc r9,__zero_reg__
 1258 08f8 AA24      		clr r10
 1259 08fa BB24      		clr r11
 1260 08fc CC24      		clr r12
 1261 08fe DD24      		clr r13
 1262 0900 01E0      		ldi r16,lo8(1)
 1263 0902 21E0      		ldi r18,lo8(1)
 1264 0904 30E0      		ldi r19,hi8(1)
 1265 0906 40E0      		ldi r20,hlo8(1)
 1266 0908 50E0      		ldi r21,hhi8(1)
 1267 090a 60E0      		ldi r22,lo8(0)
 1268 090c 70E0      		ldi r23,hi8(0)
 1269 090e 80E0      		ldi r24,hlo8(0)
 1270 0910 90E0      		ldi r25,hhi8(0)
 1271 0912 0E94 0000 		call OSTmrCreate
 1272 0916 9093 0000 		sts (TimerList+24)+1,r25
 1273 091a 8093 0000 		sts TimerList+24,r24
 1274               	.L140:
 1275               	.LM103:
 1276 091e E090 0000 		lds r14,TimerList+30
 1277 0922 F090 0000 		lds r15,(TimerList+30)+1
 1278 0926 E114      		cp r14,__zero_reg__
 1279 0928 F104      		cpc r15,__zero_reg__
 1280 092a 01F0      		breq .L142
 1281               	.LM104:
 1282 092c 4E01      		movw r8,r28
 1283 092e 0894      		sec
 1284 0930 811C      		adc r8,__zero_reg__
 1285 0932 911C      		adc r9,__zero_reg__
 1286 0934 AA24      		clr r10
 1287 0936 BB24      		clr r11
 1288 0938 CC24      		clr r12
 1289 093a DD24      		clr r13
 1290 093c 01E0      		ldi r16,lo8(1)
 1291 093e 21E0      		ldi r18,lo8(1)
 1292 0940 30E0      		ldi r19,hi8(1)
 1293 0942 40E0      		ldi r20,hlo8(1)
 1294 0944 50E0      		ldi r21,hhi8(1)
 1295 0946 60E0      		ldi r22,lo8(0)
 1296 0948 70E0      		ldi r23,hi8(0)
 1297 094a 80E0      		ldi r24,hlo8(0)
 1298 094c 90E0      		ldi r25,hhi8(0)
 1299 094e 0E94 0000 		call OSTmrCreate
 1300 0952 9093 0000 		sts (TimerList+28)+1,r25
 1301 0956 8093 0000 		sts TimerList+28,r24
 1302               	.L142:
 1303               	.LM105:
 1304 095a E090 0000 		lds r14,TimerList+34
 1305 095e F090 0000 		lds r15,(TimerList+34)+1
 1306 0962 E114      		cp r14,__zero_reg__
 1307 0964 F104      		cpc r15,__zero_reg__
 1308 0966 01F0      		breq .L144
 1309               	.LM106:
 1310 0968 4E01      		movw r8,r28
 1311 096a 0894      		sec
 1312 096c 811C      		adc r8,__zero_reg__
 1313 096e 911C      		adc r9,__zero_reg__
 1314 0970 AA24      		clr r10
 1315 0972 BB24      		clr r11
 1316 0974 CC24      		clr r12
 1317 0976 DD24      		clr r13
 1318 0978 01E0      		ldi r16,lo8(1)
 1319 097a 21E0      		ldi r18,lo8(1)
 1320 097c 30E0      		ldi r19,hi8(1)
 1321 097e 40E0      		ldi r20,hlo8(1)
 1322 0980 50E0      		ldi r21,hhi8(1)
 1323 0982 60E0      		ldi r22,lo8(0)
 1324 0984 70E0      		ldi r23,hi8(0)
 1325 0986 80E0      		ldi r24,hlo8(0)
 1326 0988 90E0      		ldi r25,hhi8(0)
 1327 098a 0E94 0000 		call OSTmrCreate
 1328 098e 9093 0000 		sts (TimerList+32)+1,r25
 1329 0992 8093 0000 		sts TimerList+32,r24
 1330               	.L144:
 1331               	.LM107:
 1332 0996 E090 0000 		lds r14,TimerList+38
 1333 099a F090 0000 		lds r15,(TimerList+38)+1
 1334 099e E114      		cp r14,__zero_reg__
 1335 09a0 F104      		cpc r15,__zero_reg__
 1336 09a2 01F0      		breq .L146
 1337               	.LM108:
 1338 09a4 4E01      		movw r8,r28
 1339 09a6 0894      		sec
 1340 09a8 811C      		adc r8,__zero_reg__
 1341 09aa 911C      		adc r9,__zero_reg__
 1342 09ac AA24      		clr r10
 1343 09ae BB24      		clr r11
 1344 09b0 CC24      		clr r12
 1345 09b2 DD24      		clr r13
 1346 09b4 01E0      		ldi r16,lo8(1)
 1347 09b6 21E0      		ldi r18,lo8(1)
 1348 09b8 30E0      		ldi r19,hi8(1)
 1349 09ba 40E0      		ldi r20,hlo8(1)
 1350 09bc 50E0      		ldi r21,hhi8(1)
 1351 09be 60E0      		ldi r22,lo8(0)
 1352 09c0 70E0      		ldi r23,hi8(0)
 1353 09c2 80E0      		ldi r24,hlo8(0)
 1354 09c4 90E0      		ldi r25,hhi8(0)
 1355 09c6 0E94 0000 		call OSTmrCreate
 1356 09ca 9093 0000 		sts (TimerList+36)+1,r25
 1357 09ce 8093 0000 		sts TimerList+36,r24
 1358               	.L146:
 1359               	.LM109:
 1360 09d2 E090 0000 		lds r14,TimerList+42
 1361 09d6 F090 0000 		lds r15,(TimerList+42)+1
 1362 09da E114      		cp r14,__zero_reg__
 1363 09dc F104      		cpc r15,__zero_reg__
 1364 09de 01F0      		breq .L148
 1365               	.LM110:
 1366 09e0 4E01      		movw r8,r28
 1367 09e2 0894      		sec
 1368 09e4 811C      		adc r8,__zero_reg__
 1369 09e6 911C      		adc r9,__zero_reg__
 1370 09e8 AA24      		clr r10
 1371 09ea BB24      		clr r11
 1372 09ec CC24      		clr r12
 1373 09ee DD24      		clr r13
 1374 09f0 01E0      		ldi r16,lo8(1)
 1375 09f2 21E0      		ldi r18,lo8(1)
 1376 09f4 30E0      		ldi r19,hi8(1)
 1377 09f6 40E0      		ldi r20,hlo8(1)
 1378 09f8 50E0      		ldi r21,hhi8(1)
 1379 09fa 60E0      		ldi r22,lo8(0)
 1380 09fc 70E0      		ldi r23,hi8(0)
 1381 09fe 80E0      		ldi r24,hlo8(0)
 1382 0a00 90E0      		ldi r25,hhi8(0)
 1383 0a02 0E94 0000 		call OSTmrCreate
 1384 0a06 9093 0000 		sts (TimerList+40)+1,r25
 1385 0a0a 8093 0000 		sts TimerList+40,r24
 1386               	.L148:
 1387               	.LM111:
 1388 0a0e E090 0000 		lds r14,TimerList+46
 1389 0a12 F090 0000 		lds r15,(TimerList+46)+1
 1390 0a16 E114      		cp r14,__zero_reg__
 1391 0a18 F104      		cpc r15,__zero_reg__
 1392 0a1a 01F0      		breq .L150
 1393               	.LM112:
 1394 0a1c 4E01      		movw r8,r28
 1395 0a1e 0894      		sec
 1396 0a20 811C      		adc r8,__zero_reg__
 1397 0a22 911C      		adc r9,__zero_reg__
 1398 0a24 AA24      		clr r10
 1399 0a26 BB24      		clr r11
 1400 0a28 CC24      		clr r12
 1401 0a2a DD24      		clr r13
 1402 0a2c 01E0      		ldi r16,lo8(1)
 1403 0a2e 21E0      		ldi r18,lo8(1)
 1404 0a30 30E0      		ldi r19,hi8(1)
 1405 0a32 40E0      		ldi r20,hlo8(1)
 1406 0a34 50E0      		ldi r21,hhi8(1)
 1407 0a36 60E0      		ldi r22,lo8(0)
 1408 0a38 70E0      		ldi r23,hi8(0)
 1409 0a3a 80E0      		ldi r24,hlo8(0)
 1410 0a3c 90E0      		ldi r25,hhi8(0)
 1411 0a3e 0E94 0000 		call OSTmrCreate
 1412 0a42 9093 0000 		sts (TimerList+44)+1,r25
 1413 0a46 8093 0000 		sts TimerList+44,r24
 1414               	.L150:
 1415               	.LM113:
 1416 0a4a E090 0000 		lds r14,TimerList+50
 1417 0a4e F090 0000 		lds r15,(TimerList+50)+1
 1418 0a52 E114      		cp r14,__zero_reg__
 1419 0a54 F104      		cpc r15,__zero_reg__
 1420 0a56 01F0      		breq .L152
 1421               	.LM114:
 1422 0a58 4E01      		movw r8,r28
 1423 0a5a 0894      		sec
 1424 0a5c 811C      		adc r8,__zero_reg__
 1425 0a5e 911C      		adc r9,__zero_reg__
 1426 0a60 AA24      		clr r10
 1427 0a62 BB24      		clr r11
 1428 0a64 CC24      		clr r12
 1429 0a66 DD24      		clr r13
 1430 0a68 01E0      		ldi r16,lo8(1)
 1431 0a6a 21E0      		ldi r18,lo8(1)
 1432 0a6c 30E0      		ldi r19,hi8(1)
 1433 0a6e 40E0      		ldi r20,hlo8(1)
 1434 0a70 50E0      		ldi r21,hhi8(1)
 1435 0a72 60E0      		ldi r22,lo8(0)
 1436 0a74 70E0      		ldi r23,hi8(0)
 1437 0a76 80E0      		ldi r24,hlo8(0)
 1438 0a78 90E0      		ldi r25,hhi8(0)
 1439 0a7a 0E94 0000 		call OSTmrCreate
 1440 0a7e 9093 0000 		sts (TimerList+48)+1,r25
 1441 0a82 8093 0000 		sts TimerList+48,r24
 1442               	.L152:
 1443               	.LM115:
 1444 0a86 E090 0000 		lds r14,TimerList+54
 1445 0a8a F090 0000 		lds r15,(TimerList+54)+1
 1446 0a8e E114      		cp r14,__zero_reg__
 1447 0a90 F104      		cpc r15,__zero_reg__
 1448 0a92 01F0      		breq .L154
 1449               	.LM116:
 1450 0a94 4E01      		movw r8,r28
 1451 0a96 0894      		sec
 1452 0a98 811C      		adc r8,__zero_reg__
 1453 0a9a 911C      		adc r9,__zero_reg__
 1454 0a9c AA24      		clr r10
 1455 0a9e BB24      		clr r11
 1456 0aa0 CC24      		clr r12
 1457 0aa2 DD24      		clr r13
 1458 0aa4 01E0      		ldi r16,lo8(1)
 1459 0aa6 21E0      		ldi r18,lo8(1)
 1460 0aa8 30E0      		ldi r19,hi8(1)
 1461 0aaa 40E0      		ldi r20,hlo8(1)
 1462 0aac 50E0      		ldi r21,hhi8(1)
 1463 0aae 60E0      		ldi r22,lo8(0)
 1464 0ab0 70E0      		ldi r23,hi8(0)
 1465 0ab2 80E0      		ldi r24,hlo8(0)
 1466 0ab4 90E0      		ldi r25,hhi8(0)
 1467 0ab6 0E94 0000 		call OSTmrCreate
 1468 0aba 9093 0000 		sts (TimerList+52)+1,r25
 1469 0abe 8093 0000 		sts TimerList+52,r24
 1470               	.L154:
 1471               	.LM117:
 1472 0ac2 E090 0000 		lds r14,TimerList+58
 1473 0ac6 F090 0000 		lds r15,(TimerList+58)+1
 1474 0aca E114      		cp r14,__zero_reg__
 1475 0acc F104      		cpc r15,__zero_reg__
 1476 0ace 01F0      		breq .L156
 1477               	.LM118:
 1478 0ad0 4E01      		movw r8,r28
 1479 0ad2 0894      		sec
 1480 0ad4 811C      		adc r8,__zero_reg__
 1481 0ad6 911C      		adc r9,__zero_reg__
 1482 0ad8 AA24      		clr r10
 1483 0ada BB24      		clr r11
 1484 0adc CC24      		clr r12
 1485 0ade DD24      		clr r13
 1486 0ae0 01E0      		ldi r16,lo8(1)
 1487 0ae2 21E0      		ldi r18,lo8(1)
 1488 0ae4 30E0      		ldi r19,hi8(1)
 1489 0ae6 40E0      		ldi r20,hlo8(1)
 1490 0ae8 50E0      		ldi r21,hhi8(1)
 1491 0aea 60E0      		ldi r22,lo8(0)
 1492 0aec 70E0      		ldi r23,hi8(0)
 1493 0aee 80E0      		ldi r24,hlo8(0)
 1494 0af0 90E0      		ldi r25,hhi8(0)
 1495 0af2 0E94 0000 		call OSTmrCreate
 1496 0af6 9093 0000 		sts (TimerList+56)+1,r25
 1497 0afa 8093 0000 		sts TimerList+56,r24
 1498               	.L156:
 1499               	.LM119:
 1500 0afe E090 0000 		lds r14,TimerList+62
 1501 0b02 F090 0000 		lds r15,(TimerList+62)+1
 1502 0b06 E114      		cp r14,__zero_reg__
 1503 0b08 F104      		cpc r15,__zero_reg__
 1504 0b0a 01F0      		breq .L158
 1505               	.LM120:
 1506 0b0c 4E01      		movw r8,r28
 1507 0b0e 0894      		sec
 1508 0b10 811C      		adc r8,__zero_reg__
 1509 0b12 911C      		adc r9,__zero_reg__
 1510 0b14 AA24      		clr r10
 1511 0b16 BB24      		clr r11
 1512 0b18 CC24      		clr r12
 1513 0b1a DD24      		clr r13
 1514 0b1c 01E0      		ldi r16,lo8(1)
 1515 0b1e 21E0      		ldi r18,lo8(1)
 1516 0b20 30E0      		ldi r19,hi8(1)
 1517 0b22 40E0      		ldi r20,hlo8(1)
 1518 0b24 50E0      		ldi r21,hhi8(1)
 1519 0b26 60E0      		ldi r22,lo8(0)
 1520 0b28 70E0      		ldi r23,hi8(0)
 1521 0b2a 80E0      		ldi r24,hlo8(0)
 1522 0b2c 90E0      		ldi r25,hhi8(0)
 1523 0b2e 0E94 0000 		call OSTmrCreate
 1524 0b32 9093 0000 		sts (TimerList+60)+1,r25
 1525 0b36 8093 0000 		sts TimerList+60,r24
 1526               	.L158:
 1527               	.LBE3:
 1528               	.LM121:
 1529 0b3a 8EB5      		in r24,78-0x20
 1530 0b3c 8770      		andi r24,lo8(7)
 1531 0b3e 886C      		ori r24,lo8(-56)
 1532 0b40 8EBD      		out 78-0x20,r24
 1533               	.LM122:
 1534 0b42 8FEF      		ldi r24,lo8(2559)
 1535 0b44 99E0      		ldi r25,hi8(2559)
 1536 0b46 9BBD      		out (74)+1-0x20,r25
 1537 0b48 8ABD      		out 74-0x20,r24
 1538               	.LM123:
 1539 0b4a 80E8      		ldi r24,lo8(640)
 1540 0b4c 92E0      		ldi r25,hi8(640)
 1541 0b4e 99BD      		out (72)+1-0x20,r25
 1542 0b50 88BD      		out 72-0x20,r24
 1543               	.LM124:
 1544 0b52 8EB5      		in r24,78-0x20
 1545 0b54 887F      		andi r24,lo8(-8)
 1546 0b56 8160      		ori r24,lo8(1)
 1547 0b58 8EBD      		out 78-0x20,r24
 1548               	.LM125:
 1549 0b5a 81E0      		ldi r24,lo8(1)
 1550 0b5c 90E0      		ldi r25,hi8(1)
 1551               	/* epilogue: frame size=1 */
 1552 0b5e 2196      		adiw r28,1
 1553 0b60 0FB6      		in __tmp_reg__,__SREG__
 1554 0b62 F894      		cli
 1555 0b64 DEBF      		out __SP_H__,r29
 1556 0b66 0FBE      		out __SREG__,__tmp_reg__
 1557 0b68 CDBF      		out __SP_L__,r28
 1558 0b6a DF91      		pop r29
 1559 0b6c CF91      		pop r28
 1560 0b6e 0F91      		pop r16
 1561 0b70 FF90      		pop r15
 1562 0b72 EF90      		pop r14
 1563 0b74 DF90      		pop r13
 1564 0b76 CF90      		pop r12
 1565 0b78 BF90      		pop r11
 1566 0b7a AF90      		pop r10
 1567 0b7c 9F90      		pop r9
 1568 0b7e 8F90      		pop r8
 1569 0b80 0895      		ret
 1570               	/* epilogue end (size=18) */
 1571               	/* function timer_init size 535 (498) */
 1572               	.LFE2:
 1574               	.global	timer_startTimer
 1576               	timer_startTimer:
 1577               	.LFB3:
 1578               	.LM126:
 1579               	/* prologue: frame size=1 */
 1580 0b82 CF93      		push r28
 1581 0b84 DF93      		push r29
 1582 0b86 CDB7      		in r28,__SP_L__
 1583 0b88 DEB7      		in r29,__SP_H__
 1584 0b8a 2197      		sbiw r28,1
 1585 0b8c 0FB6      		in __tmp_reg__,__SREG__
 1586 0b8e F894      		cli
 1587 0b90 DEBF      		out __SP_H__,r29
 1588 0b92 0FBE      		out __SREG__,__tmp_reg__
 1589 0b94 CDBF      		out __SP_L__,r28
 1590               	/* prologue end (size=10) */
 1591               	.LVL68:
 1592               	.LM127:
 1593 0b96 E82F      		mov r30,r24
 1594 0b98 FF27      		clr r31
 1595 0b9a EE0F      		lsl r30
 1596 0b9c FF1F      		rol r31
 1597 0b9e EE0F      		lsl r30
 1598 0ba0 FF1F      		rol r31
 1599 0ba2 E050      		subi r30,lo8(-(TimerList))
 1600 0ba4 F040      		sbci r31,hi8(-(TimerList))
 1601 0ba6 0190      		ld __tmp_reg__,Z+
 1602 0ba8 F081      		ld r31,Z
 1603 0baa E02D      		mov r30,__tmp_reg__
 1604 0bac 7383      		std Z+3,r23
 1605 0bae 6283      		std Z+2,r22
 1606               	.LM128:
 1607 0bb0 3587      		std Z+13,r19
 1608 0bb2 2487      		std Z+12,r18
 1609               	.LM129:
 1610 0bb4 BE01      		movw r22,r28
 1611               	.LVL69:
 1612 0bb6 6F5F      		subi r22,lo8(-(1))
 1613 0bb8 7F4F      		sbci r23,hi8(-(1))
 1614 0bba CF01      		movw r24,r30
 1615               	.LVL70:
 1616 0bbc 0E94 0000 		call OSTmrStart
 1617               	.LVL71:
 1618               	.LM130:
 1619 0bc0 9927      		clr r25
 1620               	/* epilogue: frame size=1 */
 1621 0bc2 2196      		adiw r28,1
 1622 0bc4 0FB6      		in __tmp_reg__,__SREG__
 1623 0bc6 F894      		cli
 1624 0bc8 DEBF      		out __SP_H__,r29
 1625 0bca 0FBE      		out __SREG__,__tmp_reg__
 1626 0bcc CDBF      		out __SP_L__,r28
 1627 0bce DF91      		pop r29
 1628 0bd0 CF91      		pop r28
 1629 0bd2 0895      		ret
 1630               	/* epilogue end (size=9) */
 1631               	/* function timer_startTimer size 41 (22) */
 1632               	.LFE3:
 1634               	.global	timer_endTimer
 1636               	timer_endTimer:
 1637               	.LFB4:
 1638               	.LM131:
 1639               	/* prologue: frame size=1 */
 1640 0bd4 CF93      		push r28
 1641 0bd6 DF93      		push r29
 1642 0bd8 CDB7      		in r28,__SP_L__
 1643 0bda DEB7      		in r29,__SP_H__
 1644 0bdc 2197      		sbiw r28,1
 1645 0bde 0FB6      		in __tmp_reg__,__SREG__
 1646 0be0 F894      		cli
 1647 0be2 DEBF      		out __SP_H__,r29
 1648 0be4 0FBE      		out __SREG__,__tmp_reg__
 1649 0be6 CDBF      		out __SP_L__,r28
 1650               	/* prologue end (size=10) */
 1651               	.LVL72:
 1652               	.LM132:
 1653 0be8 E82F      		mov r30,r24
 1654 0bea FF27      		clr r31
 1655 0bec EE0F      		lsl r30
 1656 0bee FF1F      		rol r31
 1657 0bf0 EE0F      		lsl r30
 1658 0bf2 FF1F      		rol r31
 1659 0bf4 E050      		subi r30,lo8(-(TimerList))
 1660 0bf6 F040      		sbci r31,hi8(-(TimerList))
 1661 0bf8 9E01      		movw r18,r28
 1662 0bfa 2F5F      		subi r18,lo8(-(1))
 1663 0bfc 3F4F      		sbci r19,hi8(-(1))
 1664 0bfe 40E0      		ldi r20,lo8(0)
 1665 0c00 50E0      		ldi r21,hi8(0)
 1666 0c02 60E0      		ldi r22,lo8(0)
 1667 0c04 8081      		ld r24,Z
 1668 0c06 9181      		ldd r25,Z+1
 1669               	.LVL73:
 1670 0c08 0E94 0000 		call OSTmrStop
 1671               	.LVL74:
 1672               	.LM133:
 1673 0c0c 81E0      		ldi r24,lo8(1)
 1674 0c0e 90E0      		ldi r25,hi8(1)
 1675               	/* epilogue: frame size=1 */
 1676 0c10 2196      		adiw r28,1
 1677 0c12 0FB6      		in __tmp_reg__,__SREG__
 1678 0c14 F894      		cli
 1679 0c16 DEBF      		out __SP_H__,r29
 1680 0c18 0FBE      		out __SREG__,__tmp_reg__
 1681 0c1a CDBF      		out __SP_L__,r28
 1682 0c1c DF91      		pop r29
 1683 0c1e CF91      		pop r28
 1684 0c20 0895      		ret
 1685               	/* epilogue end (size=9) */
 1686               	/* function timer_endTimer size 39 (20) */
 1687               	.LFE4:
 1689               	.global	mtimer_handler
 1691               	mtimer_handler:
 1692               	.LFB6:
 1693               	.LM134:
 1694               	/* prologue: frame size=1 */
 1695 0c22 6F92      		push r6
 1696 0c24 7F92      		push r7
 1697 0c26 8F92      		push r8
 1698 0c28 9F92      		push r9
 1699 0c2a AF92      		push r10
 1700 0c2c BF92      		push r11
 1701 0c2e CF92      		push r12
 1702 0c30 DF92      		push r13
 1703 0c32 EF92      		push r14
 1704 0c34 FF92      		push r15
 1705 0c36 0F93      		push r16
 1706 0c38 CF93      		push r28
 1707 0c3a DF93      		push r29
 1708 0c3c CDB7      		in r28,__SP_L__
 1709 0c3e DEB7      		in r29,__SP_H__
 1710 0c40 2197      		sbiw r28,1
 1711 0c42 0FB6      		in __tmp_reg__,__SREG__
 1712 0c44 F894      		cli
 1713 0c46 DEBF      		out __SP_H__,r29
 1714 0c48 0FBE      		out __SREG__,__tmp_reg__
 1715 0c4a CDBF      		out __SP_L__,r28
 1716               	/* prologue end (size=21) */
 1717               	.LVL75:
 1718               	.LM135:
 1719 0c4c 892B      		or r24,r25
 1720 0c4e 01F4      		brne .+2
 1721 0c50 00C0      		rjmp .L211
 1722               	.LVL76:
 1723               	.L166:
 1724               	.LBB7:
 1725               	.LBB8:
 1726               	.LM136:
 1727               	/* #APP */
 1728 0c52 F894      		cli
 1729               		
 1730               	.LM137:
 1731               	/* #NOAPP */
 1732 0c54 2091 0000 		lds r18,MsgTimer+16
 1733 0c58 3091 0000 		lds r19,(MsgTimer+16)+1
 1734 0c5c 4091 0000 		lds r20,(MsgTimer+16)+2
 1735 0c60 5091 0000 		lds r21,(MsgTimer+16)+3
 1736 0c64 2F5F      		subi r18,lo8(-(1))
 1737 0c66 3F4F      		sbci r19,hi8(-(1))
 1738 0c68 4F4F      		sbci r20,hlo8(-(1))
 1739 0c6a 5F4F      		sbci r21,hhi8(-(1))
 1740 0c6c 2093 0000 		sts MsgTimer+16,r18
 1741 0c70 3093 0000 		sts (MsgTimer+16)+1,r19
 1742 0c74 4093 0000 		sts (MsgTimer+16)+2,r20
 1743 0c78 5093 0000 		sts (MsgTimer+16)+3,r21
 1744               	.LBB9:
 1745               	.LM138:
 1746 0c7c E091 0000 		lds r30,MsgTimer
 1747 0c80 F091 0000 		lds r31,(MsgTimer)+1
 1748 0c84 3097      		sbiw r30,0
 1749 0c86 01F0      		breq .L170
 1750               	.LM139:
 1751 0c88 8481      		ldd r24,Z+4
 1752 0c8a 9581      		ldd r25,Z+5
 1753 0c8c A681      		ldd r26,Z+6
 1754 0c8e B781      		ldd r27,Z+7
 1755               	.LVL77:
 1756 0c90 2817      		cp r18,r24
 1757 0c92 3907      		cpc r19,r25
 1758 0c94 4A07      		cpc r20,r26
 1759 0c96 5B07      		cpc r21,r27
 1760 0c98 01F4      		brne .+2
 1761 0c9a 00C0      		rjmp .L212
 1762               	.LVL78:
 1763               	.L170:
 1764               	.LM140:
 1765 0c9c E091 0000 		lds r30,MsgTimer+2
 1766 0ca0 F091 0000 		lds r31,(MsgTimer+2)+1
 1767 0ca4 3097      		sbiw r30,0
 1768 0ca6 01F0      		breq .L175
 1769               	.LM141:
 1770 0ca8 2481      		ldd r18,Z+4
 1771 0caa 3581      		ldd r19,Z+5
 1772 0cac 4681      		ldd r20,Z+6
 1773 0cae 5781      		ldd r21,Z+7
 1774 0cb0 8091 0000 		lds r24,MsgTimer+16
 1775 0cb4 9091 0000 		lds r25,(MsgTimer+16)+1
 1776 0cb8 A091 0000 		lds r26,(MsgTimer+16)+2
 1777 0cbc B091 0000 		lds r27,(MsgTimer+16)+3
 1778               	.LVL79:
 1779 0cc0 2817      		cp r18,r24
 1780 0cc2 3907      		cpc r19,r25
 1781 0cc4 4A07      		cpc r20,r26
 1782 0cc6 5B07      		cpc r21,r27
 1783 0cc8 01F4      		brne .+2
 1784 0cca 00C0      		rjmp .L213
 1785               	.LVL80:
 1786               	.L175:
 1787               	.LM142:
 1788 0ccc E091 0000 		lds r30,MsgTimer+4
 1789 0cd0 F091 0000 		lds r31,(MsgTimer+4)+1
 1790 0cd4 3097      		sbiw r30,0
 1791 0cd6 01F0      		breq .L180
 1792               	.LM143:
 1793 0cd8 2481      		ldd r18,Z+4
 1794 0cda 3581      		ldd r19,Z+5
 1795 0cdc 4681      		ldd r20,Z+6
 1796 0cde 5781      		ldd r21,Z+7
 1797 0ce0 8091 0000 		lds r24,MsgTimer+16
 1798 0ce4 9091 0000 		lds r25,(MsgTimer+16)+1
 1799 0ce8 A091 0000 		lds r26,(MsgTimer+16)+2
 1800 0cec B091 0000 		lds r27,(MsgTimer+16)+3
 1801               	.LVL81:
 1802 0cf0 2817      		cp r18,r24
 1803 0cf2 3907      		cpc r19,r25
 1804 0cf4 4A07      		cpc r20,r26
 1805 0cf6 5B07      		cpc r21,r27
 1806 0cf8 01F4      		brne .+2
 1807 0cfa 00C0      		rjmp .L214
 1808               	.LVL82:
 1809               	.L180:
 1810               	.LM144:
 1811 0cfc E091 0000 		lds r30,MsgTimer+6
 1812 0d00 F091 0000 		lds r31,(MsgTimer+6)+1
 1813 0d04 3097      		sbiw r30,0
 1814 0d06 01F0      		breq .L185
 1815               	.LM145:
 1816 0d08 2481      		ldd r18,Z+4
 1817 0d0a 3581      		ldd r19,Z+5
 1818 0d0c 4681      		ldd r20,Z+6
 1819 0d0e 5781      		ldd r21,Z+7
 1820 0d10 8091 0000 		lds r24,MsgTimer+16
 1821 0d14 9091 0000 		lds r25,(MsgTimer+16)+1
 1822 0d18 A091 0000 		lds r26,(MsgTimer+16)+2
 1823 0d1c B091 0000 		lds r27,(MsgTimer+16)+3
 1824               	.LVL83:
 1825 0d20 2817      		cp r18,r24
 1826 0d22 3907      		cpc r19,r25
 1827 0d24 4A07      		cpc r20,r26
 1828 0d26 5B07      		cpc r21,r27
 1829 0d28 01F4      		brne .+2
 1830 0d2a 00C0      		rjmp .L215
 1831               	.LVL84:
 1832               	.L185:
 1833               	.LM146:
 1834 0d2c E091 0000 		lds r30,MsgTimer+8
 1835 0d30 F091 0000 		lds r31,(MsgTimer+8)+1
 1836 0d34 3097      		sbiw r30,0
 1837 0d36 01F0      		breq .L190
 1838               	.LM147:
 1839 0d38 2481      		ldd r18,Z+4
 1840 0d3a 3581      		ldd r19,Z+5
 1841 0d3c 4681      		ldd r20,Z+6
 1842 0d3e 5781      		ldd r21,Z+7
 1843 0d40 8091 0000 		lds r24,MsgTimer+16
 1844 0d44 9091 0000 		lds r25,(MsgTimer+16)+1
 1845 0d48 A091 0000 		lds r26,(MsgTimer+16)+2
 1846 0d4c B091 0000 		lds r27,(MsgTimer+16)+3
 1847               	.LVL85:
 1848 0d50 2817      		cp r18,r24
 1849 0d52 3907      		cpc r19,r25
 1850 0d54 4A07      		cpc r20,r26
 1851 0d56 5B07      		cpc r21,r27
 1852 0d58 01F4      		brne .+2
 1853 0d5a 00C0      		rjmp .L216
 1854               	.LVL86:
 1855               	.L190:
 1856               	.LM148:
 1857 0d5c E091 0000 		lds r30,MsgTimer+10
 1858 0d60 F091 0000 		lds r31,(MsgTimer+10)+1
 1859 0d64 3097      		sbiw r30,0
 1860 0d66 01F0      		breq .L195
 1861               	.LM149:
 1862 0d68 2481      		ldd r18,Z+4
 1863 0d6a 3581      		ldd r19,Z+5
 1864 0d6c 4681      		ldd r20,Z+6
 1865 0d6e 5781      		ldd r21,Z+7
 1866 0d70 8091 0000 		lds r24,MsgTimer+16
 1867 0d74 9091 0000 		lds r25,(MsgTimer+16)+1
 1868 0d78 A091 0000 		lds r26,(MsgTimer+16)+2
 1869 0d7c B091 0000 		lds r27,(MsgTimer+16)+3
 1870               	.LVL87:
 1871 0d80 2817      		cp r18,r24
 1872 0d82 3907      		cpc r19,r25
 1873 0d84 4A07      		cpc r20,r26
 1874 0d86 5B07      		cpc r21,r27
 1875 0d88 01F4      		brne .+2
 1876 0d8a 00C0      		rjmp .L217
 1877               	.LVL88:
 1878               	.L195:
 1879               	.LM150:
 1880 0d8c E091 0000 		lds r30,MsgTimer+12
 1881 0d90 F091 0000 		lds r31,(MsgTimer+12)+1
 1882 0d94 3097      		sbiw r30,0
 1883 0d96 01F0      		breq .L200
 1884               	.LM151:
 1885 0d98 2481      		ldd r18,Z+4
 1886 0d9a 3581      		ldd r19,Z+5
 1887 0d9c 4681      		ldd r20,Z+6
 1888 0d9e 5781      		ldd r21,Z+7
 1889 0da0 8091 0000 		lds r24,MsgTimer+16
 1890 0da4 9091 0000 		lds r25,(MsgTimer+16)+1
 1891 0da8 A091 0000 		lds r26,(MsgTimer+16)+2
 1892 0dac B091 0000 		lds r27,(MsgTimer+16)+3
 1893               	.LVL89:
 1894 0db0 2817      		cp r18,r24
 1895 0db2 3907      		cpc r19,r25
 1896 0db4 4A07      		cpc r20,r26
 1897 0db6 5B07      		cpc r21,r27
 1898 0db8 01F4      		brne .+2
 1899 0dba 00C0      		rjmp .L218
 1900               	.LVL90:
 1901               	.L200:
 1902               	.LM152:
 1903 0dbc E091 0000 		lds r30,MsgTimer+14
 1904 0dc0 F091 0000 		lds r31,(MsgTimer+14)+1
 1905 0dc4 3097      		sbiw r30,0
 1906 0dc6 01F4      		brne .+2
 1907 0dc8 00C0      		rjmp .L205
 1908               	.LM153:
 1909 0dca 2481      		ldd r18,Z+4
 1910 0dcc 3581      		ldd r19,Z+5
 1911 0dce 4681      		ldd r20,Z+6
 1912 0dd0 5781      		ldd r21,Z+7
 1913 0dd2 8091 0000 		lds r24,MsgTimer+16
 1914 0dd6 9091 0000 		lds r25,(MsgTimer+16)+1
 1915 0dda A091 0000 		lds r26,(MsgTimer+16)+2
 1916 0dde B091 0000 		lds r27,(MsgTimer+16)+3
 1917               	.LVL91:
 1918 0de2 2817      		cp r18,r24
 1919 0de4 3907      		cpc r19,r25
 1920 0de6 4A07      		cpc r20,r26
 1921 0de8 5B07      		cpc r21,r27
 1922 0dea 01F0      		breq .+2
 1923 0dec 00C0      		rjmp .L205
 1924 0dee 00C0      		rjmp .L228
 1925               	.L212:
 1926               	.LM154:
 1927 0df0 8585      		ldd r24,Z+13
 1928 0df2 BF01      		movw r22,r30
 1929               	.LVL92:
 1930 0df4 9927      		clr r25
 1931 0df6 0E94 0000 		call schedul_sendMsg
 1932               	.LM155:
 1933 0dfa E091 0000 		lds r30,MsgTimer
 1934 0dfe F091 0000 		lds r31,(MsgTimer)+1
 1935 0e02 8485      		ldd r24,Z+12
 1936 0e04 8823      		tst r24
 1937 0e06 01F4      		brne .+2
 1938 0e08 00C0      		rjmp .L220
 1939               	.LM156:
 1940 0e0a 8091 0000 		lds r24,MsgTimer+16
 1941 0e0e 9091 0000 		lds r25,(MsgTimer+16)+1
 1942 0e12 A091 0000 		lds r26,(MsgTimer+16)+2
 1943 0e16 B091 0000 		lds r27,(MsgTimer+16)+3
 1944 0e1a 2085      		ldd r18,Z+8
 1945 0e1c 3185      		ldd r19,Z+9
 1946 0e1e 4285      		ldd r20,Z+10
 1947 0e20 5385      		ldd r21,Z+11
 1948 0e22 820F      		add r24,r18
 1949 0e24 931F      		adc r25,r19
 1950 0e26 A41F      		adc r26,r20
 1951 0e28 B51F      		adc r27,r21
 1952 0e2a 8483      		std Z+4,r24
 1953 0e2c 9583      		std Z+5,r25
 1954 0e2e A683      		std Z+6,r26
 1955 0e30 B783      		std Z+7,r27
 1956 0e32 00C0      		rjmp .L170
 1957               	.LVL93:
 1958               	.L213:
 1959               	.LM157:
 1960 0e34 8585      		ldd r24,Z+13
 1961 0e36 BF01      		movw r22,r30
 1962               	.LVL94:
 1963 0e38 9927      		clr r25
 1964 0e3a 0E94 0000 		call schedul_sendMsg
 1965               	.LM158:
 1966 0e3e E091 0000 		lds r30,MsgTimer+2
 1967 0e42 F091 0000 		lds r31,(MsgTimer+2)+1
 1968 0e46 8485      		ldd r24,Z+12
 1969 0e48 8823      		tst r24
 1970 0e4a 01F4      		brne .+2
 1971 0e4c 00C0      		rjmp .L221
 1972               	.LM159:
 1973 0e4e 8091 0000 		lds r24,MsgTimer+16
 1974 0e52 9091 0000 		lds r25,(MsgTimer+16)+1
 1975 0e56 A091 0000 		lds r26,(MsgTimer+16)+2
 1976 0e5a B091 0000 		lds r27,(MsgTimer+16)+3
 1977 0e5e 2085      		ldd r18,Z+8
 1978 0e60 3185      		ldd r19,Z+9
 1979 0e62 4285      		ldd r20,Z+10
 1980 0e64 5385      		ldd r21,Z+11
 1981 0e66 820F      		add r24,r18
 1982 0e68 931F      		adc r25,r19
 1983 0e6a A41F      		adc r26,r20
 1984 0e6c B51F      		adc r27,r21
 1985 0e6e 8483      		std Z+4,r24
 1986 0e70 9583      		std Z+5,r25
 1987 0e72 A683      		std Z+6,r26
 1988 0e74 B783      		std Z+7,r27
 1989 0e76 00C0      		rjmp .L175
 1990               	.LVL95:
 1991               	.L214:
 1992               	.LM160:
 1993 0e78 8585      		ldd r24,Z+13
 1994 0e7a BF01      		movw r22,r30
 1995               	.LVL96:
 1996 0e7c 9927      		clr r25
 1997 0e7e 0E94 0000 		call schedul_sendMsg
 1998               	.LM161:
 1999 0e82 E091 0000 		lds r30,MsgTimer+4
 2000 0e86 F091 0000 		lds r31,(MsgTimer+4)+1
 2001 0e8a 8485      		ldd r24,Z+12
 2002 0e8c 8823      		tst r24
 2003 0e8e 01F4      		brne .+2
 2004 0e90 00C0      		rjmp .L222
 2005               	.LM162:
 2006 0e92 8091 0000 		lds r24,MsgTimer+16
 2007 0e96 9091 0000 		lds r25,(MsgTimer+16)+1
 2008 0e9a A091 0000 		lds r26,(MsgTimer+16)+2
 2009 0e9e B091 0000 		lds r27,(MsgTimer+16)+3
 2010 0ea2 2085      		ldd r18,Z+8
 2011 0ea4 3185      		ldd r19,Z+9
 2012 0ea6 4285      		ldd r20,Z+10
 2013 0ea8 5385      		ldd r21,Z+11
 2014 0eaa 820F      		add r24,r18
 2015 0eac 931F      		adc r25,r19
 2016 0eae A41F      		adc r26,r20
 2017 0eb0 B51F      		adc r27,r21
 2018 0eb2 8483      		std Z+4,r24
 2019 0eb4 9583      		std Z+5,r25
 2020 0eb6 A683      		std Z+6,r26
 2021 0eb8 B783      		std Z+7,r27
 2022 0eba 00C0      		rjmp .L180
 2023               	.LVL97:
 2024               	.L215:
 2025               	.LM163:
 2026 0ebc 8585      		ldd r24,Z+13
 2027 0ebe BF01      		movw r22,r30
 2028               	.LVL98:
 2029 0ec0 9927      		clr r25
 2030 0ec2 0E94 0000 		call schedul_sendMsg
 2031               	.LM164:
 2032 0ec6 E091 0000 		lds r30,MsgTimer+6
 2033 0eca F091 0000 		lds r31,(MsgTimer+6)+1
 2034 0ece 8485      		ldd r24,Z+12
 2035 0ed0 8823      		tst r24
 2036 0ed2 01F4      		brne .+2
 2037 0ed4 00C0      		rjmp .L223
 2038               	.LM165:
 2039 0ed6 8091 0000 		lds r24,MsgTimer+16
 2040 0eda 9091 0000 		lds r25,(MsgTimer+16)+1
 2041 0ede A091 0000 		lds r26,(MsgTimer+16)+2
 2042 0ee2 B091 0000 		lds r27,(MsgTimer+16)+3
 2043 0ee6 2085      		ldd r18,Z+8
 2044 0ee8 3185      		ldd r19,Z+9
 2045 0eea 4285      		ldd r20,Z+10
 2046 0eec 5385      		ldd r21,Z+11
 2047 0eee 820F      		add r24,r18
 2048 0ef0 931F      		adc r25,r19
 2049 0ef2 A41F      		adc r26,r20
 2050 0ef4 B51F      		adc r27,r21
 2051 0ef6 8483      		std Z+4,r24
 2052 0ef8 9583      		std Z+5,r25
 2053 0efa A683      		std Z+6,r26
 2054 0efc B783      		std Z+7,r27
 2055 0efe 00C0      		rjmp .L185
 2056               	.LVL99:
 2057               	.L216:
 2058               	.LM166:
 2059 0f00 8585      		ldd r24,Z+13
 2060 0f02 BF01      		movw r22,r30
 2061               	.LVL100:
 2062 0f04 9927      		clr r25
 2063 0f06 0E94 0000 		call schedul_sendMsg
 2064               	.LM167:
 2065 0f0a E091 0000 		lds r30,MsgTimer+8
 2066 0f0e F091 0000 		lds r31,(MsgTimer+8)+1
 2067 0f12 8485      		ldd r24,Z+12
 2068 0f14 8823      		tst r24
 2069 0f16 01F4      		brne .+2
 2070 0f18 00C0      		rjmp .L224
 2071               	.LM168:
 2072 0f1a 8091 0000 		lds r24,MsgTimer+16
 2073 0f1e 9091 0000 		lds r25,(MsgTimer+16)+1
 2074 0f22 A091 0000 		lds r26,(MsgTimer+16)+2
 2075 0f26 B091 0000 		lds r27,(MsgTimer+16)+3
 2076 0f2a 2085      		ldd r18,Z+8
 2077 0f2c 3185      		ldd r19,Z+9
 2078 0f2e 4285      		ldd r20,Z+10
 2079 0f30 5385      		ldd r21,Z+11
 2080 0f32 820F      		add r24,r18
 2081 0f34 931F      		adc r25,r19
 2082 0f36 A41F      		adc r26,r20
 2083 0f38 B51F      		adc r27,r21
 2084 0f3a 8483      		std Z+4,r24
 2085 0f3c 9583      		std Z+5,r25
 2086 0f3e A683      		std Z+6,r26
 2087 0f40 B783      		std Z+7,r27
 2088 0f42 00C0      		rjmp .L190
 2089               	.LVL101:
 2090               	.L217:
 2091               	.LM169:
 2092 0f44 8585      		ldd r24,Z+13
 2093 0f46 BF01      		movw r22,r30
 2094               	.LVL102:
 2095 0f48 9927      		clr r25
 2096 0f4a 0E94 0000 		call schedul_sendMsg
 2097               	.LM170:
 2098 0f4e E091 0000 		lds r30,MsgTimer+10
 2099 0f52 F091 0000 		lds r31,(MsgTimer+10)+1
 2100 0f56 8485      		ldd r24,Z+12
 2101 0f58 8823      		tst r24
 2102 0f5a 01F4      		brne .+2
 2103 0f5c 00C0      		rjmp .L225
 2104               	.LM171:
 2105 0f5e 8091 0000 		lds r24,MsgTimer+16
 2106 0f62 9091 0000 		lds r25,(MsgTimer+16)+1
 2107 0f66 A091 0000 		lds r26,(MsgTimer+16)+2
 2108 0f6a B091 0000 		lds r27,(MsgTimer+16)+3
 2109 0f6e 2085      		ldd r18,Z+8
 2110 0f70 3185      		ldd r19,Z+9
 2111 0f72 4285      		ldd r20,Z+10
 2112 0f74 5385      		ldd r21,Z+11
 2113 0f76 820F      		add r24,r18
 2114 0f78 931F      		adc r25,r19
 2115 0f7a A41F      		adc r26,r20
 2116 0f7c B51F      		adc r27,r21
 2117 0f7e 8483      		std Z+4,r24
 2118 0f80 9583      		std Z+5,r25
 2119 0f82 A683      		std Z+6,r26
 2120 0f84 B783      		std Z+7,r27
 2121 0f86 00C0      		rjmp .L195
 2122               	.LVL103:
 2123               	.L218:
 2124               	.LM172:
 2125 0f88 8585      		ldd r24,Z+13
 2126 0f8a BF01      		movw r22,r30
 2127               	.LVL104:
 2128 0f8c 9927      		clr r25
 2129 0f8e 0E94 0000 		call schedul_sendMsg
 2130               	.LM173:
 2131 0f92 E091 0000 		lds r30,MsgTimer+12
 2132 0f96 F091 0000 		lds r31,(MsgTimer+12)+1
 2133 0f9a 8485      		ldd r24,Z+12
 2134 0f9c 8823      		tst r24
 2135 0f9e 01F4      		brne .+2
 2136 0fa0 00C0      		rjmp .L226
 2137               	.LM174:
 2138 0fa2 8091 0000 		lds r24,MsgTimer+16
 2139 0fa6 9091 0000 		lds r25,(MsgTimer+16)+1
 2140 0faa A091 0000 		lds r26,(MsgTimer+16)+2
 2141 0fae B091 0000 		lds r27,(MsgTimer+16)+3
 2142 0fb2 2085      		ldd r18,Z+8
 2143 0fb4 3185      		ldd r19,Z+9
 2144 0fb6 4285      		ldd r20,Z+10
 2145 0fb8 5385      		ldd r21,Z+11
 2146 0fba 820F      		add r24,r18
 2147 0fbc 931F      		adc r25,r19
 2148 0fbe A41F      		adc r26,r20
 2149 0fc0 B51F      		adc r27,r21
 2150 0fc2 8483      		std Z+4,r24
 2151 0fc4 9583      		std Z+5,r25
 2152 0fc6 A683      		std Z+6,r26
 2153 0fc8 B783      		std Z+7,r27
 2154 0fca 00C0      		rjmp .L200
 2155               	.LVL105:
 2156               	.L228:
 2157               	.LM175:
 2158 0fcc 8585      		ldd r24,Z+13
 2159 0fce BF01      		movw r22,r30
 2160               	.LVL106:
 2161 0fd0 9927      		clr r25
 2162 0fd2 0E94 0000 		call schedul_sendMsg
 2163               	.LM176:
 2164 0fd6 E091 0000 		lds r30,MsgTimer+14
 2165 0fda F091 0000 		lds r31,(MsgTimer+14)+1
 2166 0fde 8485      		ldd r24,Z+12
 2167 0fe0 8823      		tst r24
 2168 0fe2 01F4      		brne .+2
 2169 0fe4 00C0      		rjmp .L208
 2170               	.LM177:
 2171 0fe6 8091 0000 		lds r24,MsgTimer+16
 2172 0fea 9091 0000 		lds r25,(MsgTimer+16)+1
 2173 0fee A091 0000 		lds r26,(MsgTimer+16)+2
 2174 0ff2 B091 0000 		lds r27,(MsgTimer+16)+3
 2175 0ff6 2085      		ldd r18,Z+8
 2176 0ff8 3185      		ldd r19,Z+9
 2177 0ffa 4285      		ldd r20,Z+10
 2178 0ffc 5385      		ldd r21,Z+11
 2179 0ffe 820F      		add r24,r18
 2180 1000 931F      		adc r25,r19
 2181 1002 A41F      		adc r26,r20
 2182 1004 B51F      		adc r27,r21
 2183 1006 8483      		std Z+4,r24
 2184 1008 9583      		std Z+5,r25
 2185 100a A683      		std Z+6,r26
 2186 100c B783      		std Z+7,r27
 2187 100e 00C0      		rjmp .L205
 2188               	.LVL107:
 2189               	.L211:
 2190               	.LBE9:
 2191               	.LBE8:
 2192               	.LBE7:
 2193               	.LM178:
 2194 1010 3E01      		movw r6,r28
 2195 1012 0894      		sec
 2196 1014 611C      		adc r6,__zero_reg__
 2197 1016 711C      		adc r7,__zero_reg__
 2198 1018 4301      		movw r8,r6
 2199 101a AA24      		clr r10
 2200 101c BB24      		clr r11
 2201 101e CC24      		clr r12
 2202 1020 DD24      		clr r13
 2203 1022 60E0      		ldi r22,lo8(gs(mtimer_handler))
 2204 1024 E62E      		mov r14,r22
 2205 1026 60E0      		ldi r22,hi8(gs(mtimer_handler))
 2206 1028 F62E      		mov r15,r22
 2207               	.LVL108:
 2208 102a 02E0      		ldi r16,lo8(2)
 2209 102c 2DE5      		ldi r18,lo8(93)
 2210 102e 30E0      		ldi r19,hi8(93)
 2211 1030 40E0      		ldi r20,hlo8(93)
 2212 1032 50E0      		ldi r21,hhi8(93)
 2213 1034 60E0      		ldi r22,lo8(0)
 2214 1036 70E0      		ldi r23,hi8(0)
 2215 1038 80E0      		ldi r24,hlo8(0)
 2216 103a 90E0      		ldi r25,hhi8(0)
 2217 103c 0E94 0000 		call OSTmrCreate
 2218               	.LVL109:
 2219 1040 7C01      		movw r14,r24
 2220               	.LVL110:
 2221               	.LM179:
 2222 1042 892B      		or r24,r25
 2223 1044 01F4      		brne .+2
 2224 1046 00C0      		rjmp .L227
 2225               	.L168:
 2226               	.LM180:
 2227 1048 F092 0000 		sts (pMsOsTmr)+1,r15
 2228 104c E092 0000 		sts pMsOsTmr,r14
 2229               	.LM181:
 2230 1050 B301      		movw r22,r6
 2231 1052 C701      		movw r24,r14
 2232 1054 0E94 0000 		call OSTmrStart
 2233 1058 00C0      		rjmp .L166
 2234               	.L220:
 2235               	.LBB10:
 2236               	.LBB11:
 2237               	.LBB12:
 2238               	.LM182:
 2239 105a CF01      		movw r24,r30
 2240 105c 0E94 0000 		call mem_freeMem
 2241               	.LM183:
 2242 1060 1092 0000 		sts (MsgTimer)+1,__zero_reg__
 2243 1064 1092 0000 		sts MsgTimer,__zero_reg__
 2244 1068 00C0      		rjmp .L170
 2245               	.L208:
 2246               	.LM184:
 2247 106a CF01      		movw r24,r30
 2248 106c 0E94 0000 		call mem_freeMem
 2249               	.LM185:
 2250 1070 1092 0000 		sts (MsgTimer+14)+1,__zero_reg__
 2251 1074 1092 0000 		sts MsgTimer+14,__zero_reg__
 2252 1078 00C0      		rjmp .L205
 2253               	.L226:
 2254               	.LM186:
 2255 107a CF01      		movw r24,r30
 2256 107c 0E94 0000 		call mem_freeMem
 2257               	.LM187:
 2258 1080 1092 0000 		sts (MsgTimer+12)+1,__zero_reg__
 2259 1084 1092 0000 		sts MsgTimer+12,__zero_reg__
 2260 1088 00C0      		rjmp .L200
 2261               	.L225:
 2262               	.LM188:
 2263 108a CF01      		movw r24,r30
 2264 108c 0E94 0000 		call mem_freeMem
 2265               	.LM189:
 2266 1090 1092 0000 		sts (MsgTimer+10)+1,__zero_reg__
 2267 1094 1092 0000 		sts MsgTimer+10,__zero_reg__
 2268 1098 00C0      		rjmp .L195
 2269               	.L224:
 2270               	.LM190:
 2271 109a CF01      		movw r24,r30
 2272 109c 0E94 0000 		call mem_freeMem
 2273               	.LM191:
 2274 10a0 1092 0000 		sts (MsgTimer+8)+1,__zero_reg__
 2275 10a4 1092 0000 		sts MsgTimer+8,__zero_reg__
 2276 10a8 00C0      		rjmp .L190
 2277               	.L223:
 2278               	.LM192:
 2279 10aa CF01      		movw r24,r30
 2280 10ac 0E94 0000 		call mem_freeMem
 2281               	.LM193:
 2282 10b0 1092 0000 		sts (MsgTimer+6)+1,__zero_reg__
 2283 10b4 1092 0000 		sts MsgTimer+6,__zero_reg__
 2284 10b8 00C0      		rjmp .L185
 2285               	.L222:
 2286               	.LM194:
 2287 10ba CF01      		movw r24,r30
 2288 10bc 0E94 0000 		call mem_freeMem
 2289               	.LM195:
 2290 10c0 1092 0000 		sts (MsgTimer+4)+1,__zero_reg__
 2291 10c4 1092 0000 		sts MsgTimer+4,__zero_reg__
 2292 10c8 00C0      		rjmp .L180
 2293               	.L221:
 2294               	.LM196:
 2295 10ca CF01      		movw r24,r30
 2296 10cc 0E94 0000 		call mem_freeMem
 2297               	.LM197:
 2298 10d0 1092 0000 		sts (MsgTimer+2)+1,__zero_reg__
 2299 10d4 1092 0000 		sts MsgTimer+2,__zero_reg__
 2300 10d8 00C0      		rjmp .L175
 2301               	.LVL111:
 2302               	.L227:
 2303               	.LBE12:
 2304               	.LBE11:
 2305               	.LBE10:
 2306               	.LM198:
 2307 10da 20E0      		ldi r18,lo8(0)
 2308 10dc 30E0      		ldi r19,hi8(0)
 2309 10de 40E0      		ldi r20,lo8(0)
 2310 10e0 50E0      		ldi r21,hi8(0)
 2311 10e2 60E0      		ldi r22,lo8(0)
 2312 10e4 70E0      		ldi r23,hi8(0)
 2313 10e6 82E0      		ldi r24,lo8(2)
 2314 10e8 90E0      		ldi r25,hi8(2)
 2315               	.LVL112:
 2316 10ea 0E94 0000 		call err
 2317 10ee 00C0      		rjmp .L168
 2318               	.LVL113:
 2319               	.L205:
 2320               	.LBB13:
 2321               	.LBB14:
 2322               	.LM199:
 2323               	/* #APP */
 2324 10f0 7894      		sei
 2325               		
 2326               	/* #NOAPP */
 2327               	.LBE14:
 2328               	.LBE13:
 2329               	/* epilogue: frame size=1 */
 2330 10f2 2196      		adiw r28,1
 2331 10f4 0FB6      		in __tmp_reg__,__SREG__
 2332 10f6 F894      		cli
 2333 10f8 DEBF      		out __SP_H__,r29
 2334 10fa 0FBE      		out __SREG__,__tmp_reg__
 2335 10fc CDBF      		out __SP_L__,r28
 2336 10fe DF91      		pop r29
 2337 1100 CF91      		pop r28
 2338 1102 0F91      		pop r16
 2339 1104 FF90      		pop r15
 2340 1106 EF90      		pop r14
 2341 1108 DF90      		pop r13
 2342 110a CF90      		pop r12
 2343 110c BF90      		pop r11
 2344 110e AF90      		pop r10
 2345 1110 9F90      		pop r9
 2346 1112 8F90      		pop r8
 2347 1114 7F90      		pop r7
 2348 1116 6F90      		pop r6
 2349 1118 0895      		ret
 2350               	/* epilogue end (size=20) */
 2351               	/* function mtimer_handler size 642 (601) */
 2352               	.LFE6:
 2354               	.global	mtimer_reset
 2356               	mtimer_reset:
 2357               	.LFB5:
 2358               	.LM200:
 2359               	/* prologue: frame size=0 */
 2360               	/* prologue end (size=0) */
 2361               	.LM201:
 2362               	/* #APP */
 2363 111a F894      		cli
 2364               		
 2365               	.LM202:
 2366               	/* #NOAPP */
 2367 111c 1092 0000 		sts MsgTimer+16,__zero_reg__
 2368 1120 1092 0000 		sts (MsgTimer+16)+1,__zero_reg__
 2369 1124 1092 0000 		sts (MsgTimer+16)+2,__zero_reg__
 2370 1128 1092 0000 		sts (MsgTimer+16)+3,__zero_reg__
 2371               	.LBB15:
 2372               	.LM203:
 2373 112c 8091 0000 		lds r24,MsgTimer
 2374 1130 9091 0000 		lds r25,(MsgTimer)+1
 2375 1134 0097      		sbiw r24,0
 2376 1136 01F0      		breq .L230
 2377               	.LM204:
 2378 1138 0E94 0000 		call mem_freeMem
 2379               	.LM205:
 2380 113c 1092 0000 		sts (MsgTimer)+1,__zero_reg__
 2381 1140 1092 0000 		sts MsgTimer,__zero_reg__
 2382               	.L230:
 2383               	.LM206:
 2384 1144 8091 0000 		lds r24,MsgTimer+2
 2385 1148 9091 0000 		lds r25,(MsgTimer+2)+1
 2386 114c 0097      		sbiw r24,0
 2387 114e 01F0      		breq .L232
 2388               	.LM207:
 2389 1150 0E94 0000 		call mem_freeMem
 2390               	.LM208:
 2391 1154 1092 0000 		sts (MsgTimer+2)+1,__zero_reg__
 2392 1158 1092 0000 		sts MsgTimer+2,__zero_reg__
 2393               	.L232:
 2394               	.LM209:
 2395 115c 8091 0000 		lds r24,MsgTimer+4
 2396 1160 9091 0000 		lds r25,(MsgTimer+4)+1
 2397 1164 0097      		sbiw r24,0
 2398 1166 01F0      		breq .L234
 2399               	.LM210:
 2400 1168 0E94 0000 		call mem_freeMem
 2401               	.LM211:
 2402 116c 1092 0000 		sts (MsgTimer+4)+1,__zero_reg__
 2403 1170 1092 0000 		sts MsgTimer+4,__zero_reg__
 2404               	.L234:
 2405               	.LM212:
 2406 1174 8091 0000 		lds r24,MsgTimer+6
 2407 1178 9091 0000 		lds r25,(MsgTimer+6)+1
 2408 117c 0097      		sbiw r24,0
 2409 117e 01F0      		breq .L236
 2410               	.LM213:
 2411 1180 0E94 0000 		call mem_freeMem
 2412               	.LM214:
 2413 1184 1092 0000 		sts (MsgTimer+6)+1,__zero_reg__
 2414 1188 1092 0000 		sts MsgTimer+6,__zero_reg__
 2415               	.L236:
 2416               	.LM215:
 2417 118c 8091 0000 		lds r24,MsgTimer+8
 2418 1190 9091 0000 		lds r25,(MsgTimer+8)+1
 2419 1194 0097      		sbiw r24,0
 2420 1196 01F0      		breq .L238
 2421               	.LM216:
 2422 1198 0E94 0000 		call mem_freeMem
 2423               	.LM217:
 2424 119c 1092 0000 		sts (MsgTimer+8)+1,__zero_reg__
 2425 11a0 1092 0000 		sts MsgTimer+8,__zero_reg__
 2426               	.L238:
 2427               	.LM218:
 2428 11a4 8091 0000 		lds r24,MsgTimer+10
 2429 11a8 9091 0000 		lds r25,(MsgTimer+10)+1
 2430 11ac 0097      		sbiw r24,0
 2431 11ae 01F0      		breq .L240
 2432               	.LM219:
 2433 11b0 0E94 0000 		call mem_freeMem
 2434               	.LM220:
 2435 11b4 1092 0000 		sts (MsgTimer+10)+1,__zero_reg__
 2436 11b8 1092 0000 		sts MsgTimer+10,__zero_reg__
 2437               	.L240:
 2438               	.LM221:
 2439 11bc 8091 0000 		lds r24,MsgTimer+12
 2440 11c0 9091 0000 		lds r25,(MsgTimer+12)+1
 2441 11c4 0097      		sbiw r24,0
 2442 11c6 01F0      		breq .L242
 2443               	.LM222:
 2444 11c8 0E94 0000 		call mem_freeMem
 2445               	.LM223:
 2446 11cc 1092 0000 		sts (MsgTimer+12)+1,__zero_reg__
 2447 11d0 1092 0000 		sts MsgTimer+12,__zero_reg__
 2448               	.L242:
 2449               	.LM224:
 2450 11d4 8091 0000 		lds r24,MsgTimer+14
 2451 11d8 9091 0000 		lds r25,(MsgTimer+14)+1
 2452 11dc 0097      		sbiw r24,0
 2453 11de 01F0      		breq .L244
 2454               	.LM225:
 2455 11e0 0E94 0000 		call mem_freeMem
 2456               	.LM226:
 2457 11e4 1092 0000 		sts (MsgTimer+14)+1,__zero_reg__
 2458 11e8 1092 0000 		sts MsgTimer+14,__zero_reg__
 2459               	.L244:
 2460               	.LBE15:
 2461               	.LM227:
 2462               	/* #APP */
 2463 11ec 7894      		sei
 2464               		
 2465               	.LM228:
 2466               	/* #NOAPP */
 2467 11ee 60E0      		ldi r22,lo8(0)
 2468 11f0 70E0      		ldi r23,hi8(0)
 2469 11f2 80E0      		ldi r24,lo8(0)
 2470 11f4 90E0      		ldi r25,hi8(0)
 2471 11f6 0E94 0000 		call mtimer_handler
 2472               	/* epilogue: frame size=0 */
 2473 11fa 0895      		ret
 2474               	/* epilogue end (size=1) */
 2475               	/* function mtimer_reset size 119 (118) */
 2476               	.LFE5:
 2478               	.global	TimerList
 2479               		.data
 2482               	TimerList:
 2483 0000 0000      		.word	0
 2484 0002 0000      		.word	pm(mlme_scanTimeout)
 2485 0004 0000      		.word	0
 2486 0006 0000      		.word	pm(mac_forceOffTrx)
 2487 0008 0000      		.word	0
 2488 000a 0000      		.word	pm(mlme_runAssoDataReq)
 2489 000c 0000      		.word	0
 2490 000e 0000      		.word	pm(mlme_timeoutAssoDataRes)
 2491 0010 0000      		.word	0
 2492 0012 0000      		.word	pm(beacon_createSyncBeaconTask)
 2493 0014 0000      		.word	0
 2494 0016 0000      		.word	pm(beacon_createTimeoutSyncBncTask)
 2495 0018 0000      		.word	0
 2496 001a 0000      		.word	pm(csmaca_locateBeaconTimeout)
 2497 001c 0000      		.word	0
 2498 001e 0000      		.word	pm(tx_timeoutAck)
 2499 0020 0000      		.word	0
 2500 0022 0000      		.word	pm(csmaca_restartFromDelay)
 2501 0024 0000      		.word	0
 2502 0026 0000      		.word	pm(mlme_timeoutPoll)
 2503 0028 0000      		.word	0
 2504 002a 0000      		.word	pm(mlme_handleRxEnableTask)
 2505 002c 0000      		.word	0
 2506 002e 0000      		.word	pm(beacon_createBeaconTxTask)
 2507 0030 0000 0000 		.skip 16,0
 2507      0000 0000 
 2507      0000 0000 
 2507      0000 0000 
 2508               		.comm OSIntNesting,1,1
 2509               		.comm OSMemFreeList,2,1
 2510               		.comm OSMemTbl,96,1
 2511               		.comm OSTmrFree,2,1
 2512               		.comm OSTmrUsed,2,1
 2513               		.comm OSTmrTime,4,1
 2514               		.comm OSTmrTbl,240,1
 2515               		.comm OSTmrFreeList,2,1
 2516               		.comm OSTmrWheelTbl,32,1
 2517               		.comm MsgTimer,20,1
 2518               		.comm pMsOsTmr,2,1
 2590               	.Letext0:
DEFINED SYMBOLS
                            *ABS*:00000000 static_timer.c
C:\DOCUME~1\pnthai\LOCALS~1\Temp/ccGcaaaa.s:3      *ABS*:0000003f __SREG__
C:\DOCUME~1\pnthai\LOCALS~1\Temp/ccGcaaaa.s:4      *ABS*:0000003e __SP_H__
C:\DOCUME~1\pnthai\LOCALS~1\Temp/ccGcaaaa.s:5      *ABS*:0000003d __SP_L__
C:\DOCUME~1\pnthai\LOCALS~1\Temp/ccGcaaaa.s:6      *ABS*:00000000 __tmp_reg__
C:\DOCUME~1\pnthai\LOCALS~1\Temp/ccGcaaaa.s:7      *ABS*:00000001 __zero_reg__
C:\DOCUME~1\pnthai\LOCALS~1\Temp/ccGcaaaa.s:20     .text:00000000 mtimer_endTmr
                            *COM*:00000014 MsgTimer
C:\DOCUME~1\pnthai\LOCALS~1\Temp/ccGcaaaa.s:270    .text:00000190 mtimer_creatTmr
C:\DOCUME~1\pnthai\LOCALS~1\Temp/ccGcaaaa.s:507    .text:00000314 mtimer_dispatchTmrMsg
C:\DOCUME~1\pnthai\LOCALS~1\Temp/ccGcaaaa.s:1054   .text:00000754 timer_init
C:\DOCUME~1\pnthai\LOCALS~1\Temp/ccGcaaaa.s:2482   .data:00000000 TimerList
C:\DOCUME~1\pnthai\LOCALS~1\Temp/ccGcaaaa.s:1576   .text:00000b82 timer_startTimer
C:\DOCUME~1\pnthai\LOCALS~1\Temp/ccGcaaaa.s:1636   .text:00000bd4 timer_endTimer
C:\DOCUME~1\pnthai\LOCALS~1\Temp/ccGcaaaa.s:1691   .text:00000c22 mtimer_handler
                            *COM*:00000002 pMsOsTmr
C:\DOCUME~1\pnthai\LOCALS~1\Temp/ccGcaaaa.s:2356   .text:0000111a mtimer_reset
                            *COM*:00000001 OSIntNesting
                            *COM*:00000002 OSMemFreeList
                            *COM*:00000060 OSMemTbl
                            *COM*:00000002 OSTmrFree
                            *COM*:00000002 OSTmrUsed
                            *COM*:00000004 OSTmrTime
                            *COM*:000000f0 OSTmrTbl
                            *COM*:00000002 OSTmrFreeList
                            *COM*:00000020 OSTmrWheelTbl

UNDEFINED SYMBOLS
__do_copy_data
__do_clear_bss
mem_freeMem
mem_getMem
__udivmodsi4
schedul_sendMsg
OSTmrCreate
OSTmrStart
OSTmrStop
err
mlme_scanTimeout
mac_forceOffTrx
mlme_runAssoDataReq
mlme_timeoutAssoDataRes
beacon_createSyncBeaconTask
beacon_createTimeoutSyncBncTask
csmaca_locateBeaconTimeout
tx_timeoutAck
csmaca_restartFromDelay
mlme_timeoutPoll
mlme_handleRxEnableTask
beacon_createBeaconTxTask
